(dp0
I1
S'the'
p1
sI2
S'.'
p2
sI3
S','
p3
sI4
S'of'
p4
sI5
S'to'
p5
sI6
S'and'
p6
sI7
S'that'
p7
sI8
S'*'
p8
sI9
S'is'
p9
sI10
S'luxury'
p10
sI11
S'a'
p11
sI12
S'motorcycles'
p12
sI13
S'standard'
p13
sI14
S'in'
p14
sI15
S'company'
p15
sI16
S'production'
p16
sI17
S'line'
p17
sI18
S'be'
p18
sI19
S'motorcycle'
p19
sI20
S'for'
p20
sI21
S'it'
p21
sI22
S'more'
p22
sI23
S'not'
p23
sI24
S'will'
p24
sI25
S'this'
p25
sI26
S'argument'
p26
sI27
S'profits'
p27
sI28
S'if'
p28
sI29
S'are'
p29
sI30
S'by'
p30
sI31
S'increase'
p31
sI32
S'would'
p32
sI33
S'on'
p33
sI34
S'profit'
p34
sI35
S'can'
p35
sI36
S'as'
p36
sI37
S'prestige'
p37
sI38
S"'s"
p38
sI39
S'author'
p39
sI40
S'ceo'
p40
sI41
S'may'
p41
sI42
S'cost'
p42
sI43
S'they'
p43
sI44
S'assembly'
p44
sI45
S'could'
p45
sI46
S'its'
p46
sI47
S'have'
p47
sI48
S'there'
p48
sI49
S'with'
p49
sI50
S'than'
p50
sI51
S'produce'
p51
sI52
S'their'
p52
sI53
S'market'
p53
sI54
S'robotic'
p54
sI55
S'from'
p55
sI56
S'demand'
p56
sI57
S'also'
p57
sI58
S'which'
p58
sI59
S'should'
p59
sI60
S'one'
p60
sI61
S'or'
p61
sI62
S'does'
p62
sI63
S'sales'
p63
sI64
S'conclusion'
p64
sI65
S'costs'
p65
sI66
S'efficiency'
p66
sI67
S'make'
p67
sI68
S'expensive'
p68
sI69
S'second'
p69
sI70
S'an'
p70
sI71
S'product'
p71
sI72
S'but'
p72
sI73
S'less'
p73
sI74
S'time'
p74
sI75
S'higher'
p75
sI76
S'has'
p76
sI77
S'because'
p77
sI78
S'evidence'
p78
sI79
S'only'
p79
sI80
S'however'
p80
sI81
S'other'
p81
sI82
S'into'
p82
sI83
S'at'
p83
sI84
S'customers'
p84
sI85
S'increasing'
p85
sI86
S'producing'
p86
sI87
S'all'
p87
sI88
S'first'
p88
sI89
S'brand'
p89
sI90
S'no'
p90
sI91
S'price'
p91
sI92
S'these'
p92
sI93
S'number'
p93
sI94
S'information'
p94
sI95
S'two'
p95
sI96
S'take'
p96
sI97
S'then'
p97
sI98
S'his'
p98
sI99
S'we'
p99
sI100
S'products'
p100
sI101
S'model'
p101
sI102
S'lines'
p102
sI103
S'assumption'
p103
sI104
S'how'
p104
sI105
S'much'
p105
sI106
S'such'
p106
sI107
S'might'
p107
sI108
S'he'
p108
sI109
S'memo'
p109
sI110
S'made'
p110
sI111
S'parts'
p111
sI112
S'what'
p112
sI113
S'about'
p113
sI114
S'fails'
p114
sI115
S'consider'
p115
sI116
S'some'
p116
sI117
S'provide'
p117
sI118
S'hand'
p118
sI119
S'any'
p119
sI120
S'need'
p120
sI121
S'so'
p121
sI122
S'greater'
p122
sI123
S'order'
p123
sI124
S'high'
p124
sI125
S'factors'
p125
sI126
S'increased'
p126
sI127
S'each'
p127
sI128
S'even'
p128
sI129
S'margin'
p129
sI130
S'without'
p130
sI131
S'many'
p131
sI132
S'support'
p132
sI133
S'converting'
p133
sI134
S'revenue'
p134
sI135
S'assumptions'
p135
sI136
S'therefore'
p136
sI137
S'well'
p137
sI138
S'assumes'
p138
sI139
S'do'
p139
sI140
S'board'
p140
sI141
S'example'
p141
sI142
S'produced'
p142
sI143
S'motorcyles'
p143
sI144
S'while'
p144
sI145
S'decision'
p145
sI146
S'above'
p146
sI147
S'?'
p147
sI148
S'both'
p148
sI149
S'new'
p149
sI150
S'possible'
p150
sI151
S'sell'
p151
sI152
S'thus'
p152
sI153
S'selling'
p153
sI154
S'current'
p154
sI155
S'ceasing'
p155
sI156
S'needs'
p156
sI157
S'officer'
p157
sI158
S'case'
p158
sI159
S'out'
p159
sI160
S'sold'
p160
sI161
S'up'
p161
sI162
S'consumers'
p162
sI163
S'making'
p163
sI164
S'executive'
p164
sI165
S'quality'
p165
sI166
S'another'
p166
sI167
S'result'
p167
sI168
S'must'
p168
sI169
S'several'
p169
sI170
S'chief'
p170
sI171
S'convert'
p171
sI172
S'data'
p172
sI173
S'very'
p173
sI174
S'based'
p174
sI175
S'built'
p175
sI176
S'longer'
p176
sI177
S'bikes'
p177
sI178
S'money'
p178
sI179
S'them'
p179
sI180
S'profitable'
p180
sI181
S'additional'
p181
sI182
S'plan'
p182
sI183
S'lead'
p183
sI184
S'makes'
p184
sI185
S'fact'
p185
sI186
S'able'
p186
sI187
S'motorcyle'
p187
sI188
S'cease'
p188
sI189
S'important'
p189
sI190
S'decrease'
p190
sI191
S'directors'
p191
sI192
S'people'
p192
sI193
S'change'
p193
sI194
S'enough'
p194
sI195
S'i'
p195
sI196
S'buy'
p196
sI197
S'whether'
p197
sI198
S'been'
p198
sI199
S'streamlining'
p199
sI200
S'better'
p200
sI201
S'profitability'
p201
sI202
S'overall'
p202
sI203
S'who'
p203
sI204
S'when'
p204
sI205
S'since'
p205
sI206
S'margins'
p206
sI207
S'same'
p207
sI208
S'analysis'
p208
sI209
S'way'
p209
sI210
S'customer'
p210
sI211
S'most'
p211
sI212
S'models'
p212
sI213
S'flawed'
p213
sI214
S'before'
p214
sI215
S'convincing'
p215
sI216
S'lower'
p216
sI217
S'were'
p217
sI218
S'efficient'
p218
sI219
S'account'
p219
sI220
S'require'
p220
sI221
S'different'
p221
sI222
S'business'
p222
sI223
S'further'
p223
sI224
S'just'
p224
sI225
S'between'
p225
sI226
S'factory'
p226
sI227
S'provided'
p227
sI228
S'supply'
p228
sI229
S'due'
p229
sI230
S'ones'
p230
sI231
S')'
p231
sI232
S'reasoning'
p232
sI233
S'was'
p233
sI234
S'amount'
p234
sI235
S'those'
p235
sI236
S'reasons'
p236
sI237
S'motocycles'
p237
sI238
S'secondly'
p238
sI239
S'efficiently'
p239
sI240
S'finally'
p240
sI241
S'per'
p241
sI242
S'consumer'
p242
sI243
S'although'
p243
sI244
S"''"
p244
sI245
S'``'
p245
sI246
S'good'
p246
sI247
S'being'
p247
sI248
S'('
p248
sI249
S'states'
p249
sI250
S'claim'
p250
sI251
S'mention'
p251
sI252
S'type'
p252
sI253
S'lose'
p253
sI254
S'know'
p254
sI255
S'mentioned'
p255
sI256
S'likely'
p256
sI257
S'consideration'
p257
sI258
S'flaws'
p258
sI259
S'help'
p259
sI260
S'like'
p260
sI261
S'true'
p261
sI262
S'statement'
p262
sI263
S'loss'
p263
sI264
S'strategy'
p264
sI265
S'impact'
p265
sI266
S'bike'
p266
sI267
S'process'
p267
sI268
S'sale'
p268
sI269
S'potential'
p269
sI270
S'down'
p270
sI271
S'actually'
p271
sI272
S'addition'
p272
sI273
S'claims'
p273
sI274
S'point'
p274
sI275
S'strengthen'
p275
sI276
S'purchase'
p276
sI277
S'time-consuming'
p277
sI278
S'compared'
p278
sI279
S'given'
p279
sI280
S'conversion'
p280
sI281
S'considered'
p281
sI282
S'though'
p282
sI283
S'cheaper'
p283
sI284
S'companies'
p284
sI285
S'future'
p285
sI286
S'instead'
p286
sI287
S'key'
p287
sI288
S'build'
p288
sI289
S'presented'
p289
sI290
S'idea'
p290
sI291
S'weak'
p291
sI292
S'eliminating'
p292
sI293
S'labor'
p293
sI294
S'still'
p294
sI295
S'want'
p295
sI296
S'currently'
p296
sI297
S'takes'
p297
sI298
S'workers'
p298
sI299
S'value'
p299
sI300
S'large'
p300
sI301
S'sound'
p301
sI302
S'total'
p302
sI303
S'image'
p303
sI304
S'long'
p304
sI305
S'over'
p305
sI306
S'stated'
p306
sI307
S'points'
p307
sI308
S'proposal'
p308
sI309
S'reason'
p309
sI310
S'thereby'
p310
sI311
S'arguement'
p311
sI312
S'show'
p312
sI313
S'lot'
p313
sI314
S';'
p314
sI315
S'motocycle'
p315
sI316
S'manufacturing'
p316
sI317
S'associated'
p317
sI318
S':'
p318
sI319
S'firstly'
p319
sI320
S'after'
p320
sI321
S'rather'
p321
sI322
S'bring'
p322
sI323
S'pay'
p323
sI324
S'motor'
p324
sI325
S'our'
p325
sI326
S'produces'
p326
sI327
S'research'
p327
sI328
S'pmc'
p328
sI329
S'employees'
p329
sI330
S'had'
p330
sI331
S'cars'
p331
sI332
S'unit'
p332
sI333
S'reduce'
p333
sI334
S'prove'
p334
sI335
S'share'
p335
sI336
S'factor'
p336
sI337
S'revenues'
p337
sI338
S'address'
p338
sI339
S'hence'
p339
sI340
S'seems'
p340
sI341
S'facts'
p341
sI342
S'look'
p342
sI343
S'evaluate'
p343
sI344
S'prices'
p344
sI345
S'end'
p345
sI346
S'name'
p346
sI347
S'$'
p347
sI348
S"'"
p348
sI349
S'see'
p349
sI350
S'affect'
p350
sI351
S'effect'
p351
sI352
S'low'
p352
sI353
S'get'
p353
sI354
S'investment'
p354
sI355
S'certain'
p355
sI356
S'improve'
p356
sI357
S'simply'
p357
sI358
S'required'
p358
sI359
S'mean'
p359
sI360
S'types'
p360
sI361
S'moreover'
p361
sI362
S'logical'
p362
sI363
S'regarding'
p363
sI364
S'furthermore'
p364
sI365
S'too'
p365
sI366
S'bondville'
p366
sI367
S'best'
p367
sI368
S'used'
p368
sI369
S'give'
p369
sI370
S'means'
p370
sI371
S'did'
p371
sI372
S'taken'
p372
sI373
S'stop'
p373
sI374
S'through'
p374
sI375
S'having'
p375
sI376
S'you'
p376
sI377
S'unconvincing'
p377
sI378
S'use'
p378
sI379
S'needed'
p379
sI380
S'place'
p380
sI381
S'cause'
p381
sI382
S'requires'
p382
sI383
S'base'
p383
sI384
S'consuming'
p384
sI385
S'find'
p385
sI386
S'clear'
p386
sI387
S'great'
p387
sI388
S'numbers'
p388
sI389
S'determine'
p389
sI390
S'vehicles'
p390
sI391
S'focus'
p391
sI392
S'motorcylces'
p392
sI393
S'situation'
p393
sI394
S'think'
p394
sI395
S'sense'
p395
sI396
S'part'
p396
sI397
S'already'
p397
sI398
S'work'
p398
sI399
S'where'
p399
sI400
S'willing'
p400
sI401
S'go'
p401
sI402
S'come'
p402
sI403
S'significant'
p403
sI404
S'necessarily'
p404
sI405
S'concludes'
p405
sI406
S'why'
p406
sI407
S'marketing'
p407
sI408
S'inventory'
p408
sI409
S'ways'
p409
sI410
S'third'
p410
sI411
S'off'
p411
sI412
S'larger'
p412
sI413
S'include'
p413
sI414
S'robots'
p414
sI415
S'sufficient'
p415
sI416
S'generated'
p416
sI417
S'financial'
p417
sI418
S'create'
p418
sI419
S'provides'
p419
sI420
S'perhaps'
p420
sI421
S'assume'
p421
sI422
S'instance'
p422
sI423
S'generate'
p423
sI424
S'main'
p424
sI425
S'relies'
p425
sI426
S'additionally'
p426
sI427
S'lack'
p427
sI428
S'issues'
p428
sI429
S'taking'
p429
sI430
S'reputation'
p430
sI431
S'segment'
p431
sI432
S'replacing'
p432
sI433
S'few'
p433
sI434
S'completely'
p434
sI435
S'strengthened'
p435
sI436
S'considering'
p436
sI437
S'proposed'
p437
sI438
S'cutting'
p438
sI439
S'prefer'
p439
sI440
S'conclude'
p440
sI441
S'building'
p441
sI442
S'addressed'
p442
sI443
S'significantly'
p443
sI444
S'changing'
p444
sI445
S'necessary'
p445
sI446
S'passage'
p446
sI447
S'lastly'
p447
sI448
S'machines'
p448
sI449
S'present'
p449
sI450
S'items'
p450
sI451
S'either'
p451
sI452
S'competitors'
p452
sI453
S'difference'
p453
sI454
S'cut'
p454
sI455
S'volume'
p455
sI456
S'persuasive'
p456
sI457
S'years'
p457
sI458
S'using'
p458
sI459
S'now'
p459
sI460
S'valid'
p460
sI461
S'extra'
p461
sI462
S'assuming'
p462
sI463
S'last'
p463
sI464
S'us'
p464
sI465
S'providing'
p465
sI466
S'lost'
p466
sI467
S'units'
p467
sI468
S'sells'
p468
sI469
S'gain'
p469
sI470
S'following'
p470
sI471
S'-'
p471
sI472
S'strong'
p472
sI473
S'possibility'
p473
sI474
S'car'
p474
sI475
S'doing'
p475
sI476
S'whole'
p476
sI477
S'motorcylce'
p477
sI478
S'looking'
p478
sI479
S'argues'
p479
sI480
S'buying'
p480
sI481
S'premium'
p481
sI482
S'costly'
p482
sI483
S'failed'
p483
sI484
S'turn'
p484
sI485
S'maybe'
p485
sI486
S'reasonable'
p486
sI487
S'benefit'
p487
sI488
S'logically'
p488
sI489
S'changes'
p489
sI490
S'goal'
p490
sI491
S'streamline'
p491
sI492
S'details'
p492
sI493
S'known'
p493
sI494
S'existing'
p494
sI495
S'huge'
p495
sI496
S'removing'
p496
sI497
S'switch'
p497
sI498
S'suggests'
p498
sI499
S'move'
p499
sI500
S'sum'
p500
sI501
S'glance'
p501
sI502
S'keep'
p502
sI503
S'major'
p503
sI504
S'reasoned'
p504
sI505
S'omits'
p505
sI506
S'flaw'
p506
sI507
S'negative'
p507
sI508
S'substantiate'
p508
sI509
S'lacks'
p509
sI510
S'going'
p510
sI511
S'expenses'
p511
sI512
S'quantity'
p512
sI513
S'aspects'
p513
sI514
S'clearly'
p514
sI515
S'far'
p515
sI516
S'stopping'
p516
sI517
S'become'
p517
sI518
S'believe'
p518
sI519
S'resources'
p519
sI520
S'suggestion'
p520
sI521
S'questionable'
p521
sI522
S'automated'
p522
sI523
S'wants'
p523
sI524
S'put'
p524
sI525
S'least'
p525
sI526
S'goods'
p526
sI527
S'problem'
p527
sI528
S'level'
p528
sI529
S'always'
p529
sI530
S'run'
p530
sI531
S'questions'
p531
sI532
S'say'
p532
sI533
S'issue'
p533
sI534
S'supporting'
p534
sI535
S'recommendation'
p535
sI536
S'state'
p536
sI537
S'switching'
p537
sI538
S'view'
p538
sI539
S'versus'
p539
sI540
S'purchasing'
p540
sI541
S'understand'
p541
sI542
S'firm'
p542
sI543
S'reducing'
p543
sI544
S'supported'
p544
sI545
S'adding'
p545
sI546
S'stronger'
p546
sI547
S'discussed'
p547
sI548
S'term'
p548
sI549
S'potentially'
p549
sI550
S'concerns'
p550
sI551
S'stands'
p551
sI552
S'human'
p552
sI553
S'three'
p553
sI554
S'comparison'
p554
sI555
S'times'
p555
sI556
S'figures'
p556
sI557
S'buyers'
p557
sI558
S'kind'
p558
sI559
S'capital'
p559
sI560
S'target'
p560
sI561
S'achieve'
p561
sI562
S'floor'
p562
sI563
S'basis'
p563
sI564
S'compare'
p564
sI565
S'hurt'
p565
sI566
S'cycles'
p566
sI567
S'eliminate'
p567
sI568
S'done'
p568
sI569
S'increases'
p569
sI570
S'highly'
p570
sI571
S'justify'
p571
sI572
S'entirely'
p572
sI573
S'industry'
p573
sI574
S'rate'
p574
sI575
S'benefits'
p575
sI576
S'evidences'
p576
sI577
S'back'
p577
sI578
S'losing'
p578
sI579
S'her'
p579
sI580
S'competition'
p580
sI581
S'manufacture'
p581
sI582
S'capacity'
p582
sI583
S'creating'
p583
sI584
S'indeed'
p584
sI585
S'action'
p585
sI586
S'short'
p586
sI587
S'equipment'
p587
sI588
S'question'
p588
sI589
S'arguer'
p589
sI590
S'she'
p590
sI591
S'critical'
p591
sI592
S'expected'
p592
sI593
S'believes'
p593
sI594
S'logic'
p594
sI595
S'option'
p595
sI596
S'itself'
p596
sI597
S'hand-made'
p597
sI598
S'income'
p598
sI599
S'once'
p599
sI600
S'comes'
p600
sI601
S'assumed'
p601
sI602
S'again'
p602
sI603
S'year'
p603
sI604
S'focusing'
p604
sI605
S'specific'
p605
sI606
S'earn'
p606
sI607
S'%'
p607
sI608
S'ultimately'
p608
sI609
S'relevant'
p609
sI610
S'similar'
p610
sI611
S'solely'
p611
sI612
S'included'
p612
sI613
S'allow'
p613
sI614
S'spend'
p614
sI615
S'sure'
p615
sI616
S'writer'
p616
sI617
S'reader'
p617
sI618
S'cycle'
p618
sI619
S'equal'
p619
sI620
S'machine'
p620
sI621
S'away'
p621
sI622
S'actual'
p622
sI623
S'things'
p623
sI624
S'risk'
p624
sI625
S'thirdly'
p625
sI626
S'related'
p626
sI627
S'results'
p627
sI628
S'appears'
p628
sI629
S'percentage'
p629
sI630
S'available'
p630
sI631
S'replace'
p631
sI632
S'entire'
p632
sI633
S'showing'
p633
sI634
S'here'
p634
sI635
S'manual'
p635
sI636
S'right'
p636
sI637
S'statistics'
p637
sI638
S'my'
p638
sI639
S'brands'
p639
sI640
S'big'
p640
sI641
S'save'
p641
sI642
S'terms'
p642
sI643
S'loyal'
p643
sI644
S'continue'
p644
sI645
S'luxurious'
p645
sI646
S'decreasing'
p646
sI647
S'unless'
p647
sI648
S'difficult'
p648
sI649
S'every'
p649
sI650
S'solution'
p650
sI651
S'technology'
p651
sI652
S'vehicle'
p652
sI653
S'really'
p653
sI654
S'converted'
p654
sI655
S'analyze'
p655
sI656
S'relationship'
p656
sI657
S'probably'
p657
sI658
S'item'
p658
sI659
S'contribute'
p659
sI660
S'evaluated'
p660
sI661
S'effective'
p661
sI662
S'meet'
p662
sI663
S'add'
p663
sI664
S'certainly'
p664
sI665
S'thorough'
p665
sI666
S'shows'
p666
sI667
S'ignores'
p667
sI668
S'detailed'
p668
sI669
S'economic'
p669
sI670
S'little'
p670
sI671
S'materials'
p671
sI672
S'arguments'
p672
sI673
S'premise'
p673
sI674
S'luxary'
p674
sI675
S'including'
p675
sI676
S'shift'
p676
sI677
S'correct'
p677
sI678
S'faster'
p678
sI679
S'offset'
p679
sI680
S'output'
p680
sI681
S'decide'
p681
sI682
S'within'
p682
sI683
S'maintain'
p683
sI684
S'expense'
p684
sI685
S'hard'
p685
sI686
S'discontinuing'
p686
sI687
S'competitive'
p687
sI688
S'often'
p688
sI689
S'afford'
p689
sI690
S'assess'
p690
sI691
S'convertion'
p691
sI692
S'begin'
p692
sI693
S'seem'
p693
sI694
S'own'
p694
sI695
S'net'
p695
sI696
S'remain'
p696
sI697
S'according'
p697
sI698
S'majority'
p698
sI699
S'survey'
p699
sI700
S'fully'
p700
sI701
S'clients'
p701
sI702
S'worth'
p702
sI703
S'position'
p703
sI704
S'easily'
p704
sI705
S'offer'
p705
sI706
S'ceases'
p706
sI707
S'management'
p707
sI708
S'cover'
p708
sI709
S'machinery'
p709
sI710
S'return'
p710
sI711
S'somewhat'
p711
sI712
S'general'
p712
sI713
S'effects'
p713
sI714
S'popular'
p714
sI715
S'public'
p715
sI716
S'final'
p716
sI717
S'mentions'
p717
sI718
S'interested'
p718
sI719
S'markets'
p719
sI720
S'quite'
p720
sI721
S'period'
p721
sI722
S'something'
p722
sI723
S'usually'
p723
sI724
S'depends'
p724
sI725
S'weaken'
p725
sI726
S'presents'
p726
sI727
S'reach'
p727
sI728
S'convince'
p728
sI729
S'guarantee'
p729
sI730
S'method'
p730
sI731
S'choose'
p731
sI732
S'maintenance'
p732
sI733
S'thing'
p733
sI734
S'next'
p734
sI735
S'said'
p735
sI736
S'complete'
p736
sI737
S'reveals'
p737
sI738
S'involved'
p738
sI739
S'problems'
p739
sI740
S'full'
p740
sI741
S'study'
p741
sI742
S'options'
p742
sI743
S'double'
p743
sI744
S'outweigh'
p744
sI745
S'handmade'
p745
sI746
S'space'
p746
sI747
S'past'
p747
sI748
S'fixed'
p748
sI749
S'thinking'
p749
sI750
S'favor'
p750
sI751
S'leaves'
p751
sI752
S'discuss'
p752
sI753
S'side'
p753
sI754
S'choice'
p754
sI755
S'resulting'
p755
sI756
S'various'
p756
sI757
S'open'
p757
sI758
S'explain'
p758
sI759
S'set'
p759
sI760
S'alternative'
p760
sI761
S'ensure'
p761
sI762
S'never'
p762
sI763
S'reduction'
p763
sI764
S'motors'
p764
sI765
S'assemble'
p765
sI766
S'rid'
p766
sI767
S'gives'
p767
sI768
S'decline'
p768
sI769
S'seriously'
p769
sI770
S'greatly'
p770
sI771
S'influence'
p771
sI772
S'left'
p772
sI773
S'initial'
p773
sI774
S'missing'
p774
sI775
S'draw'
p775
sI776
S'reduced'
p776
sI777
S'beneficial'
p777
sI778
S'nor'
p778
sI779
S'robot'
p779
sI780
S'remains'
p780
sI781
S'demands'
p781
sI782
S'leading'
p782
sI783
S'alone'
p783
sI784
S'possibly'
p784
sI785
S'premises'
p785
sI786
S'ability'
p786
sI787
S'thought'
p787
sI788
S'suggested'
p788
sI789
S'closing'
p789
sI790
S'productions'
p790
sI791
S'dollars'
p791
sI792
S'proof'
p792
sI793
S'despite'
p793
sI794
S'fail'
p794
sI795
S'opinion'
p795
sI796
S'your'
p796
sI797
S'perception'
p797
sI798
S'article'
p798
sI799
S'unsupported'
p799
sI800
S'relative'
p800
sI801
S'aspect'
p801
sI802
S'brings'
p802
sI803
S'economy'
p803
sI804
S'plant'
p804
sI805
S'among'
p805
sI806
S'forward'
p806
sI807
S'success'
p807
sI808
S'improved'
p808
sI809
S'hold'
p809
sI810
S'losses'
p810
sI811
S'towards'
p811
sI812
S'stating'
p812
sI813
S'attract'
p813
sI814
S'under'
p814
sI815
S'twice'
p815
sI816
S'examples'
p816
sI817
S'working'
p817
sI818
S'definitely'
p818
sI819
S'proper'
p819
sI820
S'upon'
p820
sI821
S'gross'
p821
sI822
S'crucial'
p822
sI823
S'summary'
p823
sI824
S'getting'
p824
sI825
S'particular'
p825
sI826
S'substantial'
p826
sI827
S'wrong'
p827
sI828
S'leads'
p828
sI829
S'cheap'
p829
sI830
S'demonstrate'
p830
sI831
S'understanding'
p831
sI832
S'uses'
p832
sI833
S'shutting'
p833
sI834
S'unique'
p834
sI835
S'directly'
p835
sI836
S'loyalty'
p836
sI837
S'opportunity'
p837
sI838
S'keeping'
p838
sI839
S'start'
p839
sI840
S'small'
p840
sI841
S'scale'
p841
sI842
S'interest'
p842
sI843
S'knowing'
p843
sI844
S'earned'
p844
sI845
S'compelling'
p845
sI846
S'productivity'
p846
sI847
S'ceased'
p847
sI848
S'class'
p848
sI849
S'during'
p849
sI850
S'behind'
p850
sI851
S'detail'
p851
sI852
S'along'
p852
sI853
S'close'
p853
sI854
S'advantage'
p854
sI855
S'separate'
p855
sI856
S'invest'
p856
sI857
S'essential'
p857
sI858
S'2'
p858
sI859
S'stand'
p859
sI860
S'operating'
p860
sI861
S'suggest'
p861
sI862
S'etc'
p862
sI863
S'yet'
p863
sI864
S'decreased'
p864
sI865
S'scenario'
p865
sI866
S'kinds'
p866
sI867
S'drop'
p867
sI868
S'drive'
p868
sI869
S'around'
p869
sI870
S'negatively'
p870
sI871
S'whereas'
p871
sI872
S'positive'
p872
sI873
S'plans'
p873
sI874
S'considerations'
p874
sI875
S'limited'
p875
sI876
S'bottom'
p876
sI877
S'portion'
p877
sI878
S'against'
p878
sI879
S'version'
p879
sI880
S'ca'
p880
sI881
S'added'
p881
sI882
S'single'
p882
sI883
S'says'
p883
sI884
S'trends'
p884
sI885
S'successful'
p885
sI886
S'doubling'
p886
sI887
S'growth'
p887
sI888
S'streamlined'
p888
sI889
S'happen'
p889
sI890
S'bad'
p890
sI891
S'system'
p891
sI892
S'poor'
p892
sI893
S'let'
p893
sI894
S'100'
p894
sI895
S'raise'
p895
sI896
S'labour'
p896
sI897
S'wise'
p897
sI898
S'especially'
p898
sI899
S'yield'
p899
sI900
S'suffers'
p900
sI901
S'high-end'
p901
sI902
S'concrete'
p902
sI903
S'previous'
p903
sI904
S'mass'
p904
sI905
S'training'
p905
sI906
S'10'
p906
sI907
S'offering'
p907
sI908
S'agree'
p908
sI909
S'face'
p909
sI910
S'jobs'
p910
sI911
S'underlying'
p911
sI912
S'coming'
p912
sI913
S'merit'
p913
sI914
S'exceed'
p914
sI915
S'proposes'
p915
sI916
S'1'
p916
sI917
S'gained'
p917
sI918
S'unsubstantiated'
p918
sI919
S'readily'
p919
sI920
S'excess'
p920
sI921
S'manufactured'
p921
sI922
S'extremely'
p922
sI923
S'unwarranted'
p923
sI924
S'bigger'
p924
sI925
S'average'
p925
sI926
S'giving'
p926
sI927
S'world'
p927
sI928
S'properly'
p928
sI929
S'comparing'
p929
sI930
S'rests'
p930
sI931
S'saturated'
p931
sI932
S'besides'
p932
sI933
S'approach'
p933
sI934
S'fewer'
p934
sI935
S'shut'
p935
sI936
S'created'
p936
sI937
S'suffer'
p937
sI938
S'decisions'
p938
sI939
S'elimination'
p939
sI940
S'loose'
p940
sI941
S'nothing'
p941
sI942
S'solid'
p942
sI943
S'effort'
p943
sI944
S'day'
p944
sI945
S'gratuitous'
p945
sI946
S'affected'
p946
sI947
S'matter'
p947
sI948
S'conditions'
p948
sI949
S'words'
p949
sI950
S'helpful'
p950
sI951
S'cites'
p951
sI952
S'compensate'
p952
sI953
S'plausible'
p953
sI954
S'material'
p954
sI955
S'methods'
p955
sI956
S'impossible'
p956
sI957
S'course'
p957
sI958
S'indicate'
p958
sI959
S'preference'
p959
sI960
S'goes'
p960
sI961
S'consequences'
p961
sI962
S'common'
p962
sI963
S'trend'
p963
sI964
S'status'
p964
sI965
S'appeal'
p965
sI966
S'performance'
p966
sI967
S'knowledge'
p967
sI968
S'range'
p968
sI969
S'improving'
p969
sI970
S'maintaining'
p970
sI971
S'offered'
p971
sI972
S'group'
p972
sI973
S'validity'
p973
sI974
S'pricing'
p974
sI975
S'possibilities'
p975
sI976
S'below'
p976
sI977
S'smaller'
p977
sI978
S'lacking'
p978
sI979
S'rise'
p979
sI980
S'anything'
p980
sI981
S'prodution'
p981
sI982
S'area'
p982
sI983
S'boost'
p983
sI984
S'drawn'
p984
sI985
S'replaced'
p985
sI986
S'spent'
p986
sI987
S'generally'
p987
sI988
S'skilled'
p988
sI989
S'assembled'
p989
sI990
S'transition'
p990
sI991
S'attention'
p991
sI992
S'establish'
p992
sI993
S'top'
p993
sI994
S'me'
p994
sI995
S'moving'
p995
sI996
S'informed'
p996
sI997
S'purchased'
p997
sI998
S'false'
p998
sI999
S'niche'
p999
sI1000
S'mind'
p1000
sI1001
S'basic'
p1001
sI1002
S'damage'
p1002
sI1003
S'power'
p1003
sI1004
S'stops'
p1004
sI1005
S'facility'
p1005
sI1006
S'seen'
p1006
sI1007
S'overlooks'
p1007
sI1008
S'efforts'
p1008
sI1009
S'careful'
p1009
sI1010
S'until'
p1010
sI1011
S'contribution'
p1011
sI1012
S'correlation'
p1012
sI1013
S'he/she'
p1013
sI1014
S'examination'
p1014
sI1015
S'operations'
p1015
sI1016
S'discontinue'
p1016
sI1017
S'determined'
p1017
sI1018
S'doubt'
p1018
sI1019
S'cited'
p1019
sI1020
S'reflection'
p1020
sI1021
S'real'
p1021
sI1022
S'converts'
p1022
sI1023
S'merits'
p1023
sI1024
S'rich'
p1024
sI1025
S'thier'
p1025
sI1026
S'faulty'
p1026
sI1027
S'implementing'
p1027
sI1028
S'piece'
p1028
sI1029
S'regular'
p1029
sI1030
S'pieces'
p1030
sI1031
S'form'
p1031
sI1032
S'ratio'
p1032
sI1033
S'luxuary'
p1033
sI1034
S'eventually'
p1034
sI1035
S'serious'
p1035
sI1036
S'contributing'
p1036
sI1037
S'operate'
p1037
sI1038
S'differences'
p1038
sI1039
S'together'
p1039
sI1040
S'problematic'
p1040
sI1041
S'levels'
p1041
sI1042
S'luxery'
p1042
sI1043
S'simple'
p1043
sI1044
S'conduct'
p1044
sI1045
S'achieved'
p1045
sI1046
S'preferences'
p1046
sI1047
S'break'
p1047
sI1048
S'alternatives'
p1048
sI1049
S'fall'
p1049
sI1050
S'branding'
p1050
sI1051
S'installing'
p1051
sI1052
S'evaluating'
p1052
sI1053
S'competitor'
p1053
sI1054
S'reaches'
p1054
sI1055
S'contains'
p1055
sI1056
S'consequently'
p1056
sI1057
S'feel'
p1057
sI1058
S'wo'
p1058
sI1059
S'met'
p1059
sI1060
S'otherwise'
p1060
sI1061
S'processes'
p1061
sI1062
S'tend'
p1062
sI1063
S'others'
p1063
sI1064
S'statistical'
p1064
sI1065
S'automatically'
p1065
sI1066
S'follow'
p1066
sI1067
S'efficency'
p1067
sI1068
S'appealing'
p1068
sI1069
S'special'
p1069
sI1070
S'today'
p1070
sI1071
S'division'
p1071
sI1072
S'merely'
p1072
sI1073
S'authors'
p1073
sI1074
S'direct'
p1074
sI1075
S'director'
p1075
sI1076
S'multiple'
p1076
sI1077
S'debate'
p1077
sI1078
S'causal'
p1078
sI1079
S'standardized'
p1079
sI1080
S'easier'
p1080
sI1081
S'surely'
p1081
sI1082
S'savings'
p1082
sI1083
S'project'
p1083
sI1084
S'statements'
p1084
sI1085
S'dubious'
p1085
sI1086
S'generates'
p1086
sI1087
S'remove'
p1087
sI1088
S'brought'
p1088
sI1089
S'operation'
p1089
sI1090
S'carefully'
p1090
sI1091
S'exists'
p1091
sI1092
S'shown'
p1092
sI1093
S'percent'
p1093
sI1094
S'experience'
p1094
sI1095
S'discussion'
p1095
sI1096
S'fallacy'
p1096
sI1097
S'role'
p1097
sI1098
S'considerably'
p1098
sI1099
S'minus'
p1099
sI1100
S'charge'
p1100
sI1101
S'obviously'
p1101
sI1102
S'standards'
p1102
sI1103
S'insufficient'
p1103
sI1104
S'factories'
p1104
sI1105
S'luxory'
p1105
sI1106
S'concern'
p1106
sI1107
S'areas'
p1107
sI1108
S'long-term'
p1108
sI1109
S'overhead'
p1109
sI1110
S'trying'
p1110
sI1111
S'deciding'
p1111
sI1112
S'poorly'
p1112
sI1113
S'relatively'
p1113
sI1114
S'justified'
p1114
sI1115
S'shifting'
p1115
sI1116
S'opposite'
p1116
sI1117
S'development'
p1117
sI1118
S'his/her'
p1118
sI1119
S'easy'
p1119
sI1120
S'size'
p1120
sI1121
S'proportion'
p1121
sI1122
S'numerous'
p1122
sI1123
S'concluded'
p1123
sI1124
S'determining'
p1124
sI1125
S'features'
p1125
sI1126
S'answer'
p1126
sI1127
S'projected'
p1127
sI1128
S'weakened'
p1128
sI1129
S'argue'
p1129
sI1130
S'generating'
p1130
sI1131
S'commits'
p1131
sI1132
S'decides'
p1132
sI1133
S'mistake'
p1133
sI1134
S'accurate'
p1134
sI1135
S'themselves'
p1135
sI1136
S'employee'
p1136
sI1137
S'gains'
p1137
sI1138
S'job'
p1138
sI1139
S'priced'
p1139
sI1140
S'manufacturer'
p1140
sI1141
S'structure'
p1141
sI1142
S'outcome'
p1142
sI1143
S'automation'
p1143
sI1144
S'variables'
p1144
sI1145
S'neglects'
p1145
sI1146
S'staff'
p1146
sI1147
S'thinks'
p1147
sI1148
S'play'
p1148
sI1149
S'try'
p1149
sI1150
S'incur'
p1150
sI1151
S'perspective'
p1151
sI1152
S'expand'
p1152
sI1153
S'comapny'
p1153
sI1154
S'picture'
p1154
sI1155
S'depending'
p1155
sI1156
S'previously'
p1156
sI1157
S'harm'
p1157
sI1158
S'exclusive'
p1158
sI1159
S'exist'
p1159
sI1160
S'accept'
p1160
sI1161
S'totally'
p1161
sI1162
S'chance'
p1162
sI1163
S'famous'
p1163
sI1164
S'indicates'
p1164
sI1165
S'equation'
p1165
sI1166
S'condition'
p1166
sI1167
S'primary'
p1167
sI1168
S'incurred'
p1168
sI1169
S'leave'
p1169
sI1170
S'care'
p1170
sI1171
S'running'
p1171
sI1172
S'--'
p1172
sI1173
S'failure'
p1173
sI1174
S'evaluation'
p1174
sI1175
S'force'
p1175
sI1176
S'identify'
p1176
sI1177
S'offers'
p1177
sI1178
S'specifically'
p1178
sI1179
S'enhance'
p1179
sI1180
S'source'
p1180
sI1181
S'raw'
p1181
sI1182
S'efficiencies'
p1182
sI1183
S'cost-benefit'
p1183
sI1184
S'room'
p1184
sI1185
S'detrimental'
p1185
sI1186
S'reliable'
p1186
sI1187
S'quickly'
p1187
sI1188
S'mainly'
p1188
sI1189
S'considers'
p1189
sI1190
S'analyzed'
p1190
sI1191
S'desired'
p1191
sI1192
S'supports'
p1192
sI1193
S'assertion'
p1193
sI1194
S'recognition'
p1194
sI1195
S'marginal'
p1195
sI1196
S'conducted'
p1196
sI1197
S'implies'
p1197
sI1198
S'implement'
p1198
sI1199
S'marketplace'
p1199
sI1200
S'regards'
p1200
sI1201
S'service'
p1201
sI1202
S'becomes'
p1202
sI1203
S'lesser'
p1203
sI1204
S'cases'
p1204
sI1205
S'variable'
p1205
sI1206
S'found'
p1206
sI1207
S'advertising'
p1207
sI1208
S'exactly'
p1208
sI1209
S'includes'
p1209
sI1210
S'unable'
p1210
sI1211
S'advantages'
p1211
sI1212
S'undermine'
p1212
sI1213
S'decided'
p1213
sI1214
S'components'
p1214
sI1215
S'ignored'
p1215
sI1216
S'useful'
p1216
sI1217
S'ten'
p1217
sI1218
S'&'
p1218
sI1219
S'old'
p1219
sI1220
S'original'
p1220
sI1221
S'focuses'
p1221
sI1222
S'examine'
p1222
sI1223
S'retail'
p1223
sI1224
S'3'
p1224
sI1225
S'vague'
p1225
sI1226
S'valuable'
p1226
sI1227
S'effectively'
p1227
sI1228
S'report'
p1228
sI1229
S'substantially'
p1229
sI1230
S'answers'
p1230
sI1231
S'variety'
p1231
sI1232
S'strategies'
p1232
sI1233
S'follows'
p1233
sI1234
S'error'
p1234
sI1235
S'risks'
p1235
sI1236
S'recent'
p1236
sI1237
S'realize'
p1237
sI1238
S'word'
p1238
sI1239
S'stock'
p1239
sI1240
S'neither'
p1240
sI1241
S'groundless'
p1241
sI1242
S'incomplete'
p1242
sI1243
S'lots'
p1243
sI1244
S'surplus'
p1244
sI1245
S'elements'
p1245
sI1246
S'prodcution'
p1246
sI1247
S'replacement'
p1247
sI1248
S'illustrate'
p1248
sI1249
S'acceptable'
p1249
sI1250
S'obvious'
p1250
sI1251
S'suggesting'
p1251
sI1252
S'substantiated'
p1252
sI1253
S'bought'
p1253
sI1254
S'rule'
p1254
sI1255
S'setting'
p1255
sI1256
S'lowering'
p1256
sI1257
S'doubtful'
p1257
sI1258
S'occur'
p1258
sI1259
S'figure'
p1259
sI1260
S'former'
p1260
sI1261
S'unfounded'
p1261
sI1262
S'hire'
p1262
sI1263
S'maximize'
p1263
sI1264
S'importance'
p1264
sI1265
S'segments'
p1265
sI1266
S'unclear'
p1266
sI1267
S'step'
p1267
sI1268
S'tell'
p1268
sI1269
S'stay'
p1269
sI1270
S'economies'
p1270
sI1271
S'fix'
p1271
sI1272
S'5'
p1272
sI1273
S'strength'
p1273
sI1274
S'expenditure'
p1274
sI1275
S'addressing'
p1275
sI1276
S'spending'
p1276
sI1277
S'50'
p1277
sI1278
S'investing'
p1278
sI1279
S'saved'
p1279
sI1280
S'nevertheless'
p1280
sI1281
S'cheif'
p1281
sI1282
S'causing'
p1282
sI1283
S'saving'
p1283
sI1284
S'removal'
p1284
sI1285
S'expect'
p1285
sI1286
S'effeciency'
p1286
sI1287
S'individual'
p1287
sI1288
S'almost'
p1288
sI1289
S'analyse'
p1289
sI1290
S'strategic'
p1290
sI1291
S'design'
p1291
sI1292
S'heavily'
p1292
sI1293
S'adequate'
p1293
sI1294
S'eliminated'
p1294
sI1295
S'stopped'
p1295
sI1296
S'popularity'
p1296
sI1297
S'normal'
p1297
sI1298
S'middle'
p1298
sI1299
S'represent'
p1299
sI1300
S'hours'
p1300
sI1301
S'equals'
p1301
sI1302
S'draws'
p1302
sI1303
S'recognize'
p1303
sI1304
S'nature'
p1304
sI1305
S'invalid'
p1305
sI1306
S'reached'
p1306
sI1307
S'volumes'
p1307
sI1308
S'truly'
p1308
sI1309
S'failing'
p1309
sI1310
S'depend'
p1310
sI1311
S'arugment'
p1311
sI1312
S'credibility'
p1312
sI1313
S'deal'
p1313
sI1314
S'theory'
p1314
sI1315
S'bringing'
p1315
sI1316
S'vital'
p1316
sI1317
S'goals'
p1317
sI1318
S'extent'
p1318
sI1319
S'validate'
p1319
sI1320
S'install'
p1320
sI1321
S'ideas'
p1321
sI1322
S'operational'
p1322
sI1323
S'ruling'
p1323
sI1324
S'opposed'
p1324
sI1325
S'am'
p1325
sI1326
S'social'
p1326
sI1327
S'wishful'
p1327
sI1328
S'toyota'
p1328
sI1329
S'review'
p1329
sI1330
S'exact'
p1330
sI1331
S'external'
p1331
sI1332
S'implementation'
p1332
sI1333
S'clearer'
p1333
sI1334
S'half'
p1334
sI1335
S'growing'
p1335
sI1336
S'concerning'
p1336
sI1337
S'life'
p1337
sI1338
S'exceeds'
p1338
sI1339
S'argued'
p1339
sI1340
S'automatic'
p1340
sI1341
S'readers'
p1341
sI1342
S'illogical'
p1342
sI1343
S'worker'
p1343
sI1344
S'compete'
p1344
sI1345
S'analyzing'
p1345
sI1346
S'balance'
p1346
sI1347
S'yes'
p1347
sI1348
S'affordable'
p1348
sI1349
S'direction'
p1349
sI1350
S'regard'
p1350
sI1351
S'companys'
p1351
sI1352
S'hands'
p1352
sI1353
S'bmw'
p1353
sI1354
S'audience'
p1354
sI1355
S'rely'
p1355
sI1356
S'impacts'
p1356
sI1357
S'improvement'
p1357
sI1358
S'looks'
p1358
sI1359
S'input'
p1359
sI1360
S'weakens'
p1360
sI1361
S'putting'
p1361
sI1362
S'respective'
p1362
sI1363
S'typically'
p1363
sI1364
S'elsewhere'
p1364
sI1365
S'drastic'
p1365
sI1366
S'reveal'
p1366
sI1367
S'anymore'
p1367
sI1368
S'presenting'
p1368
sI1369
S'serve'
p1369
sI1370
S'translate'
p1370
sI1371
S'deeper'
p1371
sI1372
S'proven'
p1372
sI1373
S'department'
p1373
sI1374
S'constitute'
p1374
sI1375
S'explained'
p1375
sI1376
S'altogether'
p1376
sI1377
S'breakdown'
p1377
sI1378
S'creates'
p1378
sI1379
S'organization'
p1379
sI1380
S'seperate'
p1380
sI1381
S'surveys'
p1381
sI1382
S'increse'
p1382
sI1383
S'desire'
p1383
sI1384
S'repair'
p1384
sI1385
S'render'
p1385
sI1386
S'manner'
p1386
sI1387
S'latter'
p1387
sI1388
S'implications'
p1388
sI1389
S'paying'
p1389
sI1390
S'prior'
p1390
sI1391
S'vs.'
p1391
sI1392
S'paragraph'
p1392
sI1393
S'leaving'
p1393
sI1394
S'contributes'
p1394
sI1395
S'conclusions'
p1395
sI1396
S'accordingly'
p1396
sI1397
S'comany'
p1397
sI1398
S'five'
p1398
sI1399
S'develop'
p1399
sI1400
S'budget'
p1400
sI1401
S'saying'
p1401
sI1402
S'custom'
p1402
sI1403
S'waste'
p1403
sI1404
S'implemented'
p1404
sI1405
S'relation'
p1405
sI1406
S'meaning'
p1406
sI1407
S'unfairly'
p1407
sI1408
S'explanation'
p1408
sI1409
S'manufacturers'
p1409
sI1410
S'ending'
p1410
sI1411
S'appear'
p1411
sI1412
S'bases'
p1412
sI1413
S'sounds'
p1413
sI1414
S'gaps'
p1414
sI1415
S'focused'
p1415
sI1416
S'strenghten'
p1416
sI1417
S'measure'
p1417
sI1418
S'assembling'
p1418
sI1419
S'listed'
p1419
sI1420
S'chain'
p1420
sI1421
S'stretch'
p1421
sI1422
S'primarily'
p1422
sI1423
S'bolster'
p1423
sI1424
S'core'
p1424
sI1425
S'person'
p1425
sI1426
S'outlined'
p1426
sI1427
S'man'
p1427
sI1428
S'calculate'
p1428
sI1429
S'falsely'
p1429
sI1430
S'inefficient'
p1430
sI1431
S'gap'
p1431
sI1432
S'appropriate'
p1432
sI1433
S'grow'
p1433
sI1434
S'holds'
p1434
sI1435
S'feasible'
p1435
sI1436
S'asserts'
p1436
sI1437
S'construction'
p1437
sI1438
S'attempt'
p1438
sI1439
S'produciton'
p1439
sI1440
S'command'
p1440
sI1441
S'reality'
p1441
sI1442
S'installation'
p1442
sI1443
S'buyer'
p1443
sI1444
S'mix'
p1444
sI1445
S'prestigious'
p1445
sI1446
S'couple'
p1446
sI1447
S'expanding'
p1447
sI1448
S'raised'
p1448
sI1449
S'viable'
p1449
sI1450
S'investments'
p1450
sI1451
S'20'
p1451
sI1452
S'unlikely'
p1452
sI1453
S'credible'
p1453
sI1454
S'attractive'
p1454
sI1455
S'established'
p1455
sI1456
S'closer'
p1456
sI1457
S'workforce'
p1457
sI1458
S'affecting'
p1458
sI1459
S'importantly'
p1459
sI1460
S'highest'
p1460
sI1461
S'contrary'
p1461
sI1462
S'justification'
p1462
sI1463
S'driving'
p1463
sI1464
S'lies'
p1464
sI1465
S'conspicuously'
p1465
sI1466
S'enjoy'
p1466
sI1467
S'vs'
p1467
sI1468
S'sometimes'
p1468
sI1469
S'ready'
p1469
sI1470
S'allows'
p1470
sI1471
S'measures'
p1471
sI1472
S'match'
p1472
sI1473
S'analogy'
p1473
sI1474
S'driven'
p1474
sI1475
S'facilities'
p1475
sI1476
S'incorrect'
p1476
sI1477
S'similarly'
p1477
sI1478
S'citing'
p1478
sI1479
S'costumers'
p1479
sI1480
S'forecast'
p1480
sI1481
S'backed'
p1481
sI1482
S'constant'
p1482
sI1483
S'explains'
p1483
sI1484
S'becuase'
p1484
sI1485
S'internal'
p1485
sI1486
S'concerned'
p1486
sI1487
S'speed'
p1487
sI1488
S'luxry'
p1488
sI1489
S'hiring'
p1489
sI1490
S'quantities'
p1490
sI1491
S'purchases'
p1491
sI1492
S'purpose'
p1492
sI1493
S'considerable'
p1493
sI1494
S'society'
p1494
sI1495
S'background'
p1495
sI1496
S'effiency'
p1496
sI1497
S'comparable'
p1497
sI1498
S'upfront'
p1498
sI1499
S'discontinued'
p1499
sI1500
S'written'
p1500
sI1501
S'function'
p1501
sI1502
S'skills'
p1502
sI1503
S'consume'
p1503
sI1504
S'environment'
p1504
sI1505
S'country'
p1505
sI1506
S'caused'
p1506
sI1507
S'explicitly'
p1507
sI1508
S'unknown'
p1508
sI1509
S'studies'
p1509
sI1510
S'light'
p1510
sI1511
S'ask'
p1511
sI1512
S'above-mentioned'
p1512
sI1513
S'individuals'
p1513
sI1514
S'clarify'
p1514
sI1515
S'explore'
p1515
sI1516
S'note'
p1516
sI1517
S'satisfied'
p1517
sI1518
S'compnay'
p1518
sI1519
S'absorb'
p1519
sI1520
S'storage'
p1520
sI1521
S'apart'
p1521
sI1522
S'consequence'
p1522
sI1523
S'investigate'
p1523
sI1524
S'showed'
p1524
sI1525
S'perform'
p1525
sI1526
S'perceived'
p1526
sI1527
S'mistakes'
p1527
sI1528
S'identified'
p1528
sI1529
S'aforementioned'
p1529
sI1530
S'gets'
p1530
sI1531
S'responsible'
p1531
sI1532
S'concept'
p1532
sI1533
S'overlooked'
p1533
sI1534
S'producting'
p1534
sI1535
S'faith'
p1535
sI1536
S'manufactures'
p1536
sI1537
S'population'
p1537
sI1538
S'local'
p1538
sI1539
S'consumption'
p1539
sI1540
S'changed'
p1540
sI1541
S'else'
p1541
sI1542
S'cash'
p1542
sI1543
S'month'
p1543
sI1544
S'addresses'
p1544
sI1545
S'answered'
p1545
sI1546
S'him'
p1546
sI1547
S'client'
p1547
sI1548
S'impression'
p1548
sI1549
S'stream'
p1549
sI1550
S'proposing'
p1550
sI1551
S'errors'
p1551
sI1552
S'essay'
p1552
sI1553
S'maximum'
p1553
sI1554
S'near'
p1554
sI1555
S'carry'
p1555
sI1556
S'apple'
p1556
sI1557
S'ford'
p1557
sI1558
S'agrument'
p1558
sI1559
S'paid'
p1559
sI1560
S'sector'
p1560
sI1561
S'satisfaction'
p1561
sI1562
S'automobile'
p1562
sI1563
S'called'
p1563
sI1564
S'decreases'
p1564
sI1565
S'recommends'
p1565
sI1566
S'exclusivity'
p1566
sI1567
S'ground'
p1567
sI1568
S'suppliers'
p1568
sI1569
S'dollar'
p1569
sI1570
S'attracted'
p1570
sI1571
S'reports'
p1571
sI1572
S'beyond'
p1572
sI1573
S'respect'
p1573
sI1574
S'worse'
p1574
sI1575
S'costing'
p1575
sI1576
S'1000'
p1576
sI1577
S'handle'
p1577
sI1578
S'accepted'
p1578
sI1579
S'superior'
p1579
sI1580
S'amounts'
p1580
sI1581
S'ignore'
p1581
sI1582
S'indication'
p1582
sI1583
S'suggestions'
p1583
sI1584
S'obtain'
p1584
sI1585
S'i.e'
p1585
sI1586
S'intensive'
p1586
sI1587
S'train'
p1587
sI1588
S'receive'
p1588
sI1589
S'history'
p1589
sI1590
S'efficieny'
p1590
sI1591
S'wages'
p1591
sI1592
S'rates'
p1592
sI1593
S'laying'
p1593
sI1594
S'producer'
p1594
sI1595
S'forth'
p1595
sI1596
S'style'
p1596
sI1597
S'oversimplification'
p1597
sI1598
S'enable'
p1598
sI1599
S'absence'
p1599
sI1600
S'weakness'
p1600
sI1601
S'completed'
p1601
sI1602
S'convinced'
p1602
sI1603
S'proves'
p1603
sI1604
S'paragraphs'
p1604
sI1605
S'wealthy'
p1605
sI1606
S'humans'
p1606
sI1607
S'scenarios'
p1607
sI1608
S'intended'
p1608
sI1609
S'strongly'
p1609
sI1610
S'causes'
p1610
sI1611
S'projections'
p1611
sI1612
S'undermined'
p1612
sI1613
S'works'
p1613
sI1614
S'connection'
p1614
sI1615
S'mostly'
p1615
sI1616
S'portfolio'
p1616
sI1617
S'contrast'
p1617
sI1618
S'satisfy'
p1618
sI1619
S'examined'
p1619
sI1620
S'substantive'
p1620
sI1621
S'earning'
p1621
sI1622
S'associate'
p1622
sI1623
S'solutions'
p1623
sI1624
S'team'
p1624
sI1625
S'objective'
p1625
sI1626
S'predict'
p1626
sI1627
S'actions'
p1627
sI1628
S'scrutiny'
p1628
sI1629
S'foremost'
p1629
sI1630
S'dependent'
p1630
sI1631
S'derived'
p1631
sI1632
S'reaching'
p1632
sI1633
S'equally'
p1633
sI1634
S'interesting'
p1634
sI1635
S'warrant'
p1635
sI1636
S'location'
p1636
sI1637
S'element'
p1637
sI1638
S'evident'
p1638
sI1639
S'transformation'
p1639
sI1640
S'continuing'
p1640
sI1641
S'biggest'
p1641
sI1642
S'context'
p1642
sI1643
S'quantitative'
p1643
sI1644
S'quicker'
p1644
sI1645
S'unreasonable'
p1645
sI1646
S'store'
p1646
sI1647
S'category'
p1647
sI1648
S'smart'
p1648
sI1649
S'seek'
p1649
sI1650
S'short-term'
p1650
sI1651
S'confirm'
p1651
sI1652
S'dropping'
p1652
sI1653
S'helps'
p1653
sI1654
S'declining'
p1654
sI1655
S'auther'
p1655
sI1656
S'community'
p1656
sI1657
S'wrongly'
p1657
sI1658
S'historical'
p1658
sI1659
S'namely'
p1659
sI1660
S'policy'
p1660
sI1661
S'initially'
p1661
sI1662
S'steps'
p1662
sI1663
S'comprehensive'
p1663
sI1664
S'described'
p1664
sI1665
S'planning'
p1665
sI1666
S'million'
p1666
sI1667
S'across'
p1667
sI1668
S'looked'
p1668
sI1669
S'leap'
p1669
sI1670
S'cite'
p1670
sI1671
S'affects'
p1671
sI1672
S'unfortunately'
p1672
sI1673
S'arise'
p1673
sI1674
S'risky'
p1674
sI1675
S'outweighs'
p1675
sI1676
S'economical'
p1676
sI1677
S'outside'
p1677
sI1678
S'feasibility'
p1678
sI1679
S'introducing'
p1679
sI1680
S'apparent'
p1680
sI1681
S'proving'
p1681
sI1682
S'ignoring'
p1682
sI1683
S'talk'
p1683
sI1684
S'meeting'
p1684
sI1685
S'assessment'
p1685
sI1686
S'investigation'
p1686
sI1687
S'control'
p1687
sI1688
S'10,000'
p1688
sI1689
S'later'
p1689
sI1690
S'well-reasoned'
p1690
sI1691
S'accurately'
p1691
sI1692
S'thoroughly'
p1692
sI1693
S'effectiveness'
p1693
sI1694
S'opportunities'
p1694
sI1695
S'regardless'
p1695
sI1696
S'section'
p1696
sI1697
S'hit'
p1697
sI1698
S'essentially'
p1698
sI1699
S'imply'
p1699
sI1700
S'office'
p1700
sI1701
S'ruled'
p1701
sI1702
S'describes'
p1702
sI1703
S'surface'
p1703
sI1704
S'economics'
p1704
sI1705
S'cater'
p1705
sI1706
S'text'
p1706
sI1707
S'distribution'
p1707
sI1708
S'accounted'
p1708
sI1709
S'earns'
p1709
sI1710
S'everyone'
p1710
sI1711
S'accounting'
p1711
sI1712
S'scope'
p1712
sI1713
S'fallacious'
p1713
sI1714
S'proposition'
p1714
sI1715
S'suitable'
p1715
sI1716
S'fast'
p1716
sI1717
S'represents'
p1717
sI1718
S'impacted'
p1718
sI1719
S'defined'
p1719
sI1720
S'manpower'
p1720
sI1721
S'largely'
p1721
sI1722
S'love'
p1722
sI1723
S'resource'
p1723
sI1724
S'unwise'
p1724
sI1725
S'shorter'
p1725
sI1726
S'improvements'
p1726
sI1727
S'slow'
p1727
sI1728
S'accounts'
p1728
sI1729
S'hasty'
p1729
sI1730
S'upgrade'
p1730
sI1731
S'trained'
p1731
sI1732
S'competing'
p1732
sI1733
S'discontinuation'
p1733
sI1734
S'transportation'
p1734
sI1735
S'argumentation'
p1735
sI1736
S'requirements'
p1736
sI1737
S'500'
p1737
sI1738
S'adverse'
p1738
sI1739
S'unsound'
p1739
sI1740
S'forced'
p1740
sI1741
S'developing'
p1741
sI1742
S'turning'
p1742
sI1743
S'tells'
p1743
sI1744
S'wanted'
p1744
sI1745
S'conclution'
p1745
sI1746
S'weaknesses'
p1746
sI1747
S'concluding'
p1747
sI1748
S'compares'
p1748
sI1749
S'acknowledge'
p1749
sI1750
S'factual'
p1750
sI1751
S'dangerous'
p1751
sI1752
S'values'
p1752
sI1753
S'involves'
p1753
sI1754
S'mere'
p1754
sI1755
S'ordinary'
p1755
sI1756
S'manager'
p1756
sI1757
S'annual'
p1757
sI1758
S'lend'
p1758
sI1759
S'returns'
p1759
sI1760
S'stable'
p1760
sI1761
S'respects'
p1761
sI1762
S'recommended'
p1762
sI1763
S'neglected'
p1763
sI1764
S'becasue'
p1764
sI1765
S'dedicated'
p1765
sI1766
S'developed'
p1766
sI1767
S'component'
p1767
sI1768
S'shall'
p1768
sI1769
S'financially'
p1769
sI1770
S'situations'
p1770
sI1771
S'groups'
p1771
sI1772
S'drastically'
p1772
sI1773
S'proved'
p1773
sI1774
S'insight'
p1774
sI1775
S'diversification'
p1775
sI1776
S'successfully'
p1776
sI1777
S'relying'
p1777
sI1778
S'covered'
p1778
sI1779
S'fit'
p1779
sI1780
S'rest'
p1780
sI1781
S'minimal'
p1781
sI1782
S'wil'
p1782
sI1783
S'explaining'
p1783
sI1784
S'inexpensive'
p1784
sI1785
S'falls'
p1785
sI1786
S'transfer'
p1786
sI1787
S'abandon'
p1787
sI1788
S'response'
p1788
sI1789
S'efficent'
p1789
sI1790
S'days'
p1790
sI1791
S'mentioning'
p1791
sI1792
S'exclusively'
p1792
sI1793
S'targeted'
p1793
sI1794
S'four'
p1794
sI1795
S'estimate'
p1795
sI1796
S'owners'
p1796
sI1797
S'profitablity'
p1797
sI1798
S'link'
p1798
sI1799
S'technical'
p1799
sI1800
S'toward'
p1800
sI1801
S'doesnt'
p1801
sI1802
S'raising'
p1802
sI1803
S'prediction'
p1803
sI1804
S'halt'
p1804
sI1805
S'sole'
p1805
sI1806
S'specialized'
p1806
sI1807
S'services'
p1807
sI1808
S'flow'
p1808
sI1809
S'numerical'
p1809
sI1810
S'allowing'
p1810
sI1811
S'equity'
p1811
sI1812
S'invested'
p1812
sI1813
S'indicating'
p1813
sI1814
S'and/or'
p1814
sI1815
S'outcomes'
p1815
sI1816
S'identity'
p1816
sI1817
S'sufficiently'
p1817
sI1818
S'avoid'
p1818
sI1819
S'lay'
p1819
sI1820
S'shares'
p1820
sI1821
S'productive'
p1821
sI1822
S'introduce'
p1822
sI1823
S'heavy'
p1823
sI1824
S'loosing'
p1824
sI1825
S'laid'
p1825
sI1826
S'took'
p1826
sI1827
S'check'
p1827
sI1828
S'granted'
p1828
sI1829
S'requirement'
p1829
sI1830
S'transforming'
p1830
sI1831
S'infact'
p1831
sI1832
S'gave'
p1832
sI1833
S'everything'
p1833
sI1834
S'equivalent'
p1834
sI1835
S'limit'
p1835
sI1836
S'demographic'
p1836
sI1837
S'happens'
p1837
sI1838
S'reduces'
p1838
sI1839
S'dramatically'
p1839
sI1840
S'arrive'
p1840
sI1841
S'bit'
p1841
sI1842
S'finding'
p1842
sI1843
S'behavior'
p1843
sI1844
S'capable'
p1844
sI1845
S'hopes'
p1845
sI1846
S'futher'
p1846
sI1847
S'presence'
p1847
sI1848
S'loses'
p1848
sI1849
S'realized'
p1849
sI1850
S'discusses'
p1850
sI1851
S'salary'
p1851
sI1852
S'owning'
p1852
sI1853
S'belief'
p1853
sI1854
S'obtained'
p1854
sI1855
S'aim'
p1855
sI1856
S'sustain'
p1856
sI1857
S'refute'
p1857
sI1858
S'succeed'
p1858
sI1859
S'sort'
p1859
sI1860
S'calculated'
p1860
sI1861
S'nowadays'
p1861
sI1862
S'estimated'
p1862
sI1863
S'via'
p1863
sI1864
S'aware'
p1864
sI1865
S'list'
p1865
sI1866
S'positioning'
p1866
sI1867
S'recover'
p1867
sI1868
S'involve'
p1868
sI1869
S'overcome'
p1869
sI1870
S'hurting'
p1870
sI1871
S'removed'
p1871
sI1872
S'chances'
p1872
sI1873
S'closely'
p1873
sI1874
S'counter'
p1874
sI1875
S'ever'
p1875
sI1876
S'4'
p1876
sI1877
S'trust'
p1877
sI1878
S'predicted'
p1878
sI1879
S'degree'
p1879
sI1880
S'explanations'
p1880
sI1881
S'massive'
p1881
sI1882
S'combination'
p1882
sI1883
S'starts'
p1883
sI1884
S'offerings'
p1884
sI1885
S'members'
p1885
sI1886
S'reflect'
p1886
sI1887
S'expenditures'
p1887
sI1888
S'meanwhile'
p1888
sI1889
S'correctly'
p1889
sI1890
S'favour'
p1890
sI1891
S'200'
p1891
sI1892
S'advice'
p1892
sI1893
S'demanding'
p1893
sI1894
S'promote'
p1894
sI1895
S'diversity'
p1895
sI1896
S'notion'
p1896
sI1897
S'immediately'
p1897
sI1898
S'expansion'
p1898
sI1899
S'puts'
p1899
sI1900
S'quick'
p1900
sI1901
S'saturation'
p1901
sI1902
S'shop'
p1902
sI1903
S'techniques'
p1903
sI1904
S'weigh'
p1904
sI1905
S'demanded'
p1905
sI1906
S'gaining'
p1906
sI1907
S'personal'
p1907
sI1908
S'awareness'
p1908
sI1909
S'secondary'
p1909
sI1910
S'moment'
p1910
sI1911
S'abandoning'
p1911
sI1912
S'limiting'
p1912
sI1913
S'opening'
p1913
sI1914
S'choices'
p1914
sI1915
S'intangible'
p1915
sI1916
S'came'
p1916
sI1917
S'slower'
p1917
sI1918
S'indicated'
p1918
sI1919
S'severely'
p1919
sI1920
S'judge'
p1920
sI1921
S'turns'
p1921
sI1922
S'rationale'
p1922
sI1923
S'wether'
p1923
sI1924
S'fees'
p1924
sI1925
S'react'
p1925
sI1926
S'concentrate'
p1926
sI1927
S'perfect'
p1927
sI1928
S'seemingly'
p1928
sI1929
S'builds'
p1929
sI1930
S'flagship'
p1930
sI1931
S'disadvantages'
p1931
sI1932
S'apply'
p1932
sI1933
S'misses'
p1933
sI1934
S'months'
p1934
sI1935
S'distorted'
p1935
sI1936
S'performing'
p1936
sI1937
S'talks'
p1937
sI1938
S'complex'
p1938
sI1939
S'wide'
p1939
sI1940
S'producers'
p1940
sI1941
S'electricity'
p1941
sI1942
S'riders'
p1942
sI1943
S'fallacies'
p1943
sI1944
S'safe'
p1944
sI1945
S'tries'
p1945
sI1946
S'reference'
p1946
sI1947
S'ultimate'
p1947
sI1948
S'recently'
p1948
sI1949
S'propose'
p1949
sI1950
S'ride'
p1950
sI1951
S'facing'
p1951
sI1952
S'unpersuasive'
p1952
sI1953
S'businesses'
p1953
sI1954
S'purely'
p1954
sI1955
S'combined'
p1955
sI1956
S'followed'
p1956
sI1957
S'sent'
p1957
sI1958
S'operates'
p1958
sI1959
S'corresponding'
p1959
sI1960
S'orders'
p1960
sI1961
S'calculation'
p1961
sI1962
S'corporate'
p1962
sI1963
S'extreme'
p1963
sI1964
S'speaker'
p1964
sI1965
S'consumed'
p1965
sI1966
S'equipments'
p1966
sI1967
S'inputs'
p1967
sI1968
S'hour'
p1968
sI1969
S'!'
p1969
sI1970
S'misleading'
p1970
sI1971
S'government'
p1971
sI1972
S'requiring'
p1972
sI1973
S'high-quality'
p1973
sI1974
S'guaranteed'
p1974
sI1975
S'started'
p1975
sI1976
S'broad'
p1976
sI1977
S'persuade'
p1977
sI1978
S'solidify'
p1978
sI1979
S'deep'
p1979
sI1980
S'achieving'
p1980
sI1981
S'goodwill'
p1981
sI1982
S'hardly'
p1982
sI1983
S'buys'
p1983
sI1984
S'lets'
p1984
sI1985
S'performed'
p1985
sI1986
S'doubled'
p1986
sI1987
S'fair'
p1987
sI1988
S'managers'
p1988
sI1989
S'contain'
p1989
sI1990
S'capture'
p1990
sI1991
S'recoup'
p1991
sI1992
S'mark'
p1992
sI1993
S'repairs'
p1993
sI1994
S'normally'
p1994
sI1995
S'bulk'
p1995
sI1996
S'specify'
p1996
sI1997
S'drives'
p1997
sI1998
S'weight'
p1998
sI1999
S'profits.the'
p1999
sI2000
S'fundamental'
p2000
sI2001
S'salaries'
p2001
sI2002
S'prospective'
p2002
sI2003
S'innovation'
p2003
sI2004
S'earlier'
p2004
sI2005
S'advanced'
p2005
sI2006
S'advertisement'
p2006
sI2007
S'series'
p2007
sI2008
S'drawing'
p2008
sI2009
S'told'
p2009
sI2010
S'throughout'
p2010
sI2011
S'judgement'
p2011
sI2012
S'driver'
p2012
sI2013
S'absolute'
p2013
sI2014
S'received'
p2014
sI2015
S'emotional'
p2015
sI2016
S'safety'
p2016
sI2017
S'casual'
p2017
sI2018
S'employed'
p2018
sI2019
S'suppose'
p2019
sI2020
S'absolutely'
p2020
sI2021
S'expects'
p2021
sI2022
S'event'
p2022
sI2023
S'equate'
p2023
sI2024
S'tag'
p2024
sI2025
S'1,000'
p2025
sI2026
S'finished'
p2026
sI2027
S'discussing'
p2027
sI2028
S'labors'
p2028
sI2029
S'circumstances'
p2029
sI2030
S'explored'
p2030
sI2031
S'vision'
p2031
sI2032
S'depth'
p2032
sI2033
S'plays'
p2033
sI2034
S'setup'
p2034
sI2035
S'starting'
p2035
sI2036
S'newly'
p2036
sI2037
S'availability'
p2037
sI2038
S'countries'
p2038
sI2039
S'adequately'
p2039
sI2040
S'financials'
p2040
sI2041
S'metrics'
p2041
sI2042
S'respectively'
p2042
sI2043
S'x'
p2043
sI2044
S'call'
p2044
sI2045
S'targeting'
p2045
sI2046
S'arguing'
p2046
sI2047
S'energy'
p2047
sI2048
S'manage'
p2048
sI2049
S'fee'
p2049
sI2050
S'gather'
p2050
sI2051
S'expectations'
p2051
sI2052
S'clientele'
p2052
sI2053
S'missed'
p2053
sI2054
S'futhermore'
p2054
sI2055
S'confidence'
p2055
sI2056
S'truth'
p2056
sI2057
S'remaining'
p2057
sI2058
S'outline'
p2058
sI2059
S'cancel'
p2059
sI2060
S'personnel'
p2060
sI2061
S'corporation'
p2061
sI2062
S'analysed'
p2062
sI2063
S'unanswered'
p2063
sI2064
S'incremental'
p2064
sI2065
S'fire'
p2065
sI2066
S'dynamics'
p2066
sI2067
S'assumtion'
p2067
sI2068
S'hundred'
p2068
sI2069
S'prevent'
p2069
sI2070
S'firms'
p2070
sI2071
S'deeply'
p2071
sI2072
S'inefficiency'
p2072
sI2073
S'skill'
p2073
sI2074
S'warehouse'
p2074
sI2075
S'adds'
p2075
sI2076
S'effecient'
p2076
sI2077
S'pointed'
p2077
sI2078
S'narrow'
p2078
sI2079
S"'re"
p2079
sI2080
S'reconsider'
p2080
sI2081
S'spare'
p2081
sI2082
S'thousand'
p2082
sI2083
S'earnings'
p2083
sI2084
S'appreciate'
p2084
sI2085
S'burden'
p2085
sI2086
S'recommend'
p2086
sI2087
S'attempts'
p2087
sI2088
S'somehow'
p2088
sI2089
S'surpass'
p2089
sI2090
S'turnover'
p2090
sI2091
S'fairly'
p2091
sI2092
S'fundamentally'
p2092
sI2093
S'automobiles'
p2093
sI2094
S'convicing'
p2094
sI2095
S'accomplish'
p2095
sI2096
S'concentrating'
p2096
sI2097
S'...'
p2097
sI2098
S'outweight'
p2098
sI2099
S'industries'
p2099
sI2100
S'breaks'
p2100
sI2101
S'discount'
p2101
sI2102
S'establishing'
p2102
sI2103
S'continued'
p2103
sI2104
S'viewed'
p2104
sI2105
S'beacuse'
p2105
sI2106
S'eliminates'
p2106
sI2107
S'viability'
p2107
sI2108
S'creation'
p2108
sI2109
S'seeing'
p2109
sI2110
S'designed'
p2110
sI2111
S'educated'
p2111
sI2112
S'characteristics'
p2112
sI2113
S'supplies'
p2113
sI2114
S'someone'
p2114
sI2115
S'prefers'
p2115
sI2116
S'noted'
p2116
sI2117
S'analyses'
p2117
sI2118
S'attracts'
p2118
sI2119
S'planned'
p2119
sI2120
S'slightly'
p2120
sI2121
S'imagine'
p2121
sI2122
S'verify'
p2122
sI2123
S'cons'
p2123
sI2124
S'becoming'
p2124
sI2125
S'arthor'
p2125
sI2126
S'conlusion'
p2126
sI2127
S'capability'
p2127
sI2128
S'begins'
p2128
sI2129
S'drivers'
p2129
sI2130
S'adopt'
p2130
sI2131
S'rising'
p2131
sI2132
S'soley'
p2132
sI2133
S'edge'
p2133
sI2134
S'inventories'
p2134
sI2135
S'worthwhile'
p2135
sI2136
S'positively'
p2136
sI2137
S'happy'
p2137
sI2138
S'holes'
p2138
sI2139
S'reasonably'
p2139
sI2140
S'incorrectly'
p2140
sI2141
S'experienced'
p2141
sI2142
S'plus'
p2142
sI2143
S'wishes'
p2143
sI2144
S'examining'
p2144
sI2145
S'unchanged'
p2145
sI2146
S'particularly'
p2146
sI2147
S'define'
p2147
sI2148
S'claimed'
p2148
sI2149
S'profitibility'
p2149
sI2150
S'aims'
p2150
sI2151
S'ceos'
p2151
sI2152
S'damaged'
p2152
sI2153
S'lowered'
p2153
sI2154
S'omitted'
p2154
sI2155
S'severe'
p2155
sI2156
S'describe'
p2156
sI2157
S'helped'
p2157
sI2158
S'front'
p2158
sI2159
S'comparision'
p2159
sI2160
S'conclusive'
p2160
sI2161
S'possiblity'
p2161
sI2162
S'capabilities'
p2162
sI2163
S'funds'
p2163
sI2164
S'worked'
p2164
sI2165
S'biased'
p2165
sI2166
S'standpoint'
p2166
sI2167
S'steady'
p2167
sI2168
S'demographics'
p2168
sI2169
S'compensated'
p2169
sI2170
S'qualities'
p2170
sI2171
S'prudent'
p2171
sI2172
S'beginning'
p2172
sI2173
S'alot'
p2173
sI2174
S'unemployment'
p2174
sI2175
S'grounds'
p2175
sI2176
S'knows'
p2176
sI2177
S'incease'
p2177
sI2178
S'pros'
p2178
sI2179
S'highlight'
p2179
sI2180
S'diminish'
p2180
sI2181
S'leader'
p2181
sI2182
S'90'
p2182
sI2183
S'maximizing'
p2183
sI2184
S'oversimplified'
p2184
sI2185
S'analysing'
p2185
sI2186
S'choosing'
p2186
sI2187
S'desirable'
p2187
sI2188
S'wanting'
p2188
sI2189
S'solve'
p2189
sI2190
S'assessing'
p2190
sI2191
S'supposed'
p2191
sI2192
S'disagree'
p2192
sI2193
S'applied'
p2193
sI2194
S'sentence'
p2194
sI2195
S'reading'
p2195
sI2196
S'shareholders'
p2196
sI2197
S'none'
p2197
sI2198
S'apparently'
p2198
sI2199
S'expectation'
p2199
sI2200
S'defects'
p2200
sI2201
S'inherently'
p2201
sI2202
S'elaborate'
p2202
sI2203
S'elite'
p2203
sI2204
S'soon'
p2204
sI2205
S'anticipated'
p2205
sI2206
S'recommendations'
p2206
sI2207
S'recession'
p2207
sI2208
S'alternatively'
p2208
sI2209
S'wait'
p2209
sI2210
S'eyes'
p2210
sI2211
S'extensive'
p2211
sI2212
S'learn'
p2212
sI2213
S'iphone'
p2213
sI2214
S'differentiation'
p2214
sI2215
S'symbol'
p2215
sI2216
S'influenced'
p2216
sI2217
S'raises'
p2217
sI2218
S'tastes'
p2218
sI2219
S'customized'
p2219
sI2220
S'relating'
p2220
sI2221
S'categories'
p2221
sI2222
S'interests'
p2222
sI2223
S'either-or'
p2223
sI2224
S'comparative'
p2224
sI2225
S'adversely'
p2225
sI2226
S'eventhough'
p2226
sI2227
S'precise'
p2227
sI2228
S'seeking'
p2228
sI2229
S'b'
p2229
sI2230
S'task'
p2230
sI2231
S'path'
p2231
sI2232
S'reaction'
p2232
sI2233
S'informations'
p2233
sI2234
S'message'
p2234
sI2235
S'transitioning'
p2235
sI2236
S'strenghtened'
p2236
sI2237
S'profitabilty'
p2237
sI2238
S'definition'
p2238
sI2239
S'firing'
p2239
sI2240
S'assessed'
p2240
sI2241
S'systems'
p2241
sI2242
S'ahead'
p2242
sI2243
S'lucrative'
p2243
sI2244
S'infrastructure'
p2244
sI2245
S'relates'
p2245
sI2246
S'fashion'
p2246
sI2247
S'transform'
p2247
sI2248
S'closure'
p2248
sI2249
S'generation'
p2249
sI2250
S'uniqueness'
p2250
sI2251
S'promotion'
p2251
sI2252
S'therfore'
p2252
sI2253
S'unproven'
p2253
sI2254
S'existence'
p2254
sI2255
S'additonal'
p2255
sI2256
S'amongst'
p2256
sI2257
S'taste'
p2257
sI2258
S'oversupply'
p2258
sI2259
S'seller'
p2259
sI2260
S'80'
p2260
sI2261
S'linked'
p2261
sI2262
S'largest'
p2262
sI2263
S'contributed'
p2263
sI2264
S'imprudent'
p2264
sI2265
S'incorporate'
p2265
sI2266
S'hamper'
p2266
sI2267
S'kept'
p2267
sI2268
S'targets'
p2268
sI2269
S'cuts'
p2269
sI2270
S'enhanced'
p2270
sI2271
S'claiming'
p2271
sI2272
S'ideal'
p2272
sI2273
S'forecasted'
p2273
sI2274
S'technologies'
p2274
sI2275
S'led'
p2275
sI2276
S'located'
p2276
sI2277
S'eat'
p2277
sI2278
S'broken'
p2278
sI2279
S'desires'
p2279
sI2280
S'addtion'
p2280
sI2281
S'infer'
p2281
sI2282
S'doesnot'
p2282
sI2283
S'employment'
p2283
sI2284
S'introduction'
p2284
sI2285
S'immediate'
p2285
sI2286
S'tied'
p2286
sI2287
S'conducting'
p2287
sI2288
S'assets'
p2288
sI2289
S'wish'
p2289
sI2290
S'surrounding'
p2290
sI2291
S'description'
p2291
sI2292
S'greatest'
p2292
sI2293
S'morale'
p2293
sI2294
S'5,000'
p2294
sI2295
S'cancelling'
p2295
sI2296
S'tends'
p2296
sI2297
S'layoffs'
p2297
sI2298
S'letter'
p2298
sI2299
S'valued'
p2299
sI2300
S'adjust'
p2300
sI2301
S'wider'
p2301
sI2302
S'upper'
p2302
sI2303
S'rational'
p2303
sI2304
S'vulnerable'
p2304
sI2305
S'parameters'
p2305
sI2306
S'pace'
p2306
sI2307
S'auto'
p2307
sI2308
S'access'
p2308
sI2309
S'pride'
p2309
sI2310
S'incresing'
p2310
sI2311
S'demonstrates'
p2311
sI2312
S'unlike'
p2312
sI2313
S'asked'
p2313
sI2314
S'respond'
p2314
sI2315
S'mechanical'
p2315
sI2316
S'higer'
p2316
sI2317
S'undoubtedly'
p2317
sI2318
S'factored'
p2318
sI2319
S'constructed'
p2319
sI2320
S'premature'
p2320
sI2321
S'feeling'
p2321
sI2322
S'continues'
p2322
sI2323
S'hope'
p2323
sI2324
S'preferred'
p2324
sI2325
S'reliability'
p2325
sI2326
S'relate'
p2326
sI2327
S'mistaken'
p2327
sI2328
S'monetary'
p2328
sI2329
S'presumably'
p2329
sI2330
S'matters'
p2330
sI2331
S'bear'
p2331
sI2332
S'introduced'
p2332
sI2333
S'versions'
p2333
sI2334
S'suddenly'
p2334
sI2335
S'engineers'
p2335
sI2336
S'adapt'
p2336
sI2337
S'conculsion'
p2337
sI2338
S'push'
p2338
sI2339
S'yearly'
p2339
sI2340
S'construct'
p2340
sI2341
S'alienate'
p2341
sI2342
S'runs'
p2342
sI2343
S'nearly'
p2343
sI2344
S'economically'
p2344
sI2345
S'retain'
p2345
sI2346
S'basing'
p2346
sI2347
S'conversely'
p2347
sI2348
S'waiting'
p2348
sI2349
S'inclined'
p2349
sI2350
S'feedback'
p2350
sI2351
S'entry'
p2351
sI2352
S'projection'
p2352
sI2353
S'riding'
p2353
sI2354
S'ill'
p2354
sI2355
S'topic'
p2355
sI2356
S'whose'
p2356
sI2357
S'views'
p2357
sI2358
S'deliver'
p2358
sI2359
S'excellent'
p2359
sI2360
S'helping'
p2360
sI2361
S'carried'
p2361
sI2362
S'fired'
p2362
sI2363
S'union'
p2363
sI2364
S'jump'
p2364
sI2365
S'win'
p2365
sI2366
S'harder'
p2366
sI2367
S'consists'
p2367
sI2368
S'vast'
p2368
sI2369
S'assist'
p2369
sI2370
S'differentiate'
p2370
sI2371
S'assure'
p2371
sI2372
S'fourth'
p2372
sI2373
S'generalization'
p2373
sI2374
S'installed'
p2374
sI2375
S'proceed'
p2375
sI2376
S'whilst'
p2376
sI2377
S'foundation'
p2377
sI2378
S'legs'
p2378
sI2379
S'increas'
p2379
sI2380
S'calculations'
p2380
sI2381
S'forecasts'
p2381
sI2382
S'assumtions'
p2382
sI2383
S'counterparts'
p2383
sI2384
S'hired'
p2384
sI2385
S'operated'
p2385
sI2386
S'accomodate'
p2386
sI2387
S'inefficiencies'
p2387
sI2388
S'association'
p2388
sI2389
S'ramifications'
p2389
sI2390
S'coupled'
p2390
sI2391
S'contends'
p2391
sI2392
S'city'
p2392
sI2393
S'intends'
p2393
sI2394
S'act'
p2394
sI2395
S'manipulates'
p2395
sI2396
S'outlines'
p2396
sI2397
S'executives'
p2397
sI2398
S'similarities'
p2398
sI2399
S'forgets'
p2399
sI2400
S'enthusiasts'
p2400
sI2401
S'efficently'
p2401
sI2402
S'road'
p2402
sI2403
S'distinct'
p2403
sI2404
S'cfo'
p2404
sI2405
S'fine'
p2405
sI2406
S'talking'
p2406
sI2407
S'minimize'
p2407
sI2408
S'alter'
p2408
sI2409
S'inherent'
p2409
sI2410
S'statment'
p2410
sI2411
S'users'
p2411
sI2412
S'pursue'
p2412
sI2413
S'knew'
p2413
sI2414
S'gone'
p2414
sI2415
S'sight'
p2415
sI2416
S'diversified'
p2416
sI2417
S'acquire'
p2417
sI2418
S'holding'
p2418
sI2419
S'global'
p2419
sI2420
S'culture'
p2420
sI2421
S'consumes'
p2421
sI2422
S'speaking'
p2422
sI2423
S'inorder'
p2423
sI2424
S'sitting'
p2424
sI2425
S'strictly'
p2425
sI2426
S'impacting'
p2426
sI2427
S'believed'
p2427
sI2428
S'optimal'
p2428
sI2429
S'th'
p2429
sI2430
S'expanded'
p2430
sI2431
S'placed'
p2431
sI2432
S'frequently'
p2432
sI2433
S'campaign'
p2433
sI2434
S'principle'
p2434
sI2435
S'subject'
p2435
sI2436
S'daily'
p2436
sI2437
S'imperative'
p2437
sI2438
S'minimum'
p2438
sI2439
S'dont'
p2439
sI2440
S'alternate'
p2440
sI2441
S'relations'
p2441
sI2442
S'warranted'
p2442
sI2443
S'feature'
p2443
sI2444
S'mission'
p2444
sI2445
S'hinder'
p2445
sI2446
S'chose'
p2446
sI2447
S'studied'
p2447
sI2448
S'diverse'
p2448
sI2449
S'unprofitable'
p2449
sI2450
S'analogous'
p2450
sI2451
S'sources'
p2451
sI2452
S'subsequently'
p2452
sI2453
S'faced'
p2453
sI2454
S'supportive'
p2454
sI2455
S'supplier'
p2455
sI2456
S'crisis'
p2456
sI2457
S'costomers'
p2457
sI2458
S'pressure'
p2458
sI2459
S'nonetheless'
p2459
sI2460
S'damaging'
p2460
sI2461
S'expertise'
p2461
sI2462
S'trouble'
p2462
sI2463
S'charged'
p2463
sI2464
S'recovered'
p2464
sI2465
S'minds'
p2465
sI2466
S'perceive'
p2466
sI2467
S'practice'
p2467
sI2468
S'inform'
p2468
sI2469
S'region'
p2469
sI2470
S'events'
p2470
sI2471
S'week'
p2471
sI2472
S'e.g'
p2472
sI2473
S'robust'
p2473
sI2474
S'understood'
p2474
sI2475
S'fulfill'
p2475
sI2476
S'therefor'
p2476
sI2477
S'autor'
p2477
sI2478
S'inferred'
p2478
sI2479
S'notice'
p2479
sI2480
S'utilize'
p2480
sI2481
S'counterpart'
p2481
sI2482
S'perfectly'
p2482
sI2483
S'dose'
p2483
sI2484
S'mutually'
p2484
sI2485
S'sit'
p2485
sI2486
S'test'
p2486
sI2487
S'live'
p2487
sI2488
S'efficience'
p2488
sI2489
S'demonstrated'
p2489
sI2490
S'undermines'
p2490
sI2491
S'maintained'
p2491
sI2492
S'conveys'
p2492
sI2493
S'asset'
p2493
sI2494
S'technological'
p2494
sI2495
S'health'
p2495
sI2496
S'favorable'
p2496
sI2497
S'completly'
p2497
sI2498
S'yields'
p2498
sI2499
S'highlighted'
p2499
sI2500
S'law'
p2500
sI2501
S'request'
p2501
sI2502
S'100,000'
p2502
sI2503
S'correlated'
p2503
sI2504
S'inconclusive'
p2504
sI2505
S'modern'
p2505
sI2506
S'wealth'
p2506
sI2507
S'dramatic'
p2507
sI2508
S'search'
p2508
sI2509
S'eye'
p2509
sI2510
S'tremendous'
p2510
sI2511
S'sets'
p2511
sI2512
S'substitute'
p2512
sI2513
S'breakeven'
p2513
sI2514
S'measured'
p2514
sI2515
S'overlook'
p2515
sI2516
S'plants'
p2516
sI2517
S'attribute'
p2517
sI2518
S'unjustified'
p2518
sI2519
S'hypothesis'
p2519
sI2520
S'cheaply'
p2520
sI2521
S'settle'
p2521
sI2522
S'upkeep'
p2522
sI2523
S'acheive'
p2523
sI2524
S'unstated'
p2524
sI2525
S'sides'
p2525
sI2526
S'shortage'
p2526
sI2527
S'glaring'
p2527
sI2528
S'tha'
p2528
sI2529
S'switched'
p2529
sI2530
S'endorsed'
p2530
sI2531
S'duration'
p2531
sI2532
S'useless'
p2532
sI2533
S'probable'
p2533
sI2534
S'correlate'
p2534
sI2535
S'adopting'
p2535
sI2536
S'neccessarily'
p2536
sI2537
S'finance'
p2537
sI2538
S'desicion'
p2538
sI2539
S'watch'
p2539
sI2540
S'fault'
p2540
sI2541
S'compay'
p2541
sI2542
S"'ll"
p2542
sI2543
S'sheet'
p2543
sI2544
S'diminishing'
p2544
sI2545
S'resulted'
p2545
sI2546
S'flood'
p2546
sI2547
S'validated'
p2547
sI2548
S'forces'
p2548
sI2549
S'miss'
p2549
sI2550
S'mode'
p2550
sI2551
S'recognized'
p2551
sI2552
S'forget'
p2552
sI2553
S'founded'
p2553
sI2554
S'applicable'
p2554
sI2555
S'implied'
p2555
sI2556
S'baseless'
p2556
sI2557
S'preceding'
p2557
sI2558
S'addtional'
p2558
sI2559
S'indirect'
p2559
sI2560
S'activities'
p2560
sI2561
S'neglecting'
p2561
sI2562
S'member'
p2562
sI2563
S'enormous'
p2563
sI2564
S'bicycles'
p2564
sI2565
S'uncertain'
p2565
sI2566
S'rules'
p2566
sI2567
S'pertaining'
p2567
sI2568
S'tools'
p2568
sI2569
S'equates'
p2569
sI2570
S'media'
p2570
sI2571
S'outlook'
p2571
sI2572
S'reviewed'
p2572
sI2573
S'statistic'
p2573
sI2574
S'campany'
p2574
sI2575
S'practical'
p2575
sI2576
S'fill'
p2576
sI2577
S'30'
p2577
sI2578
S'comparisons'
p2578
sI2579
S'consistent'
p2579
sI2580
S'comapany'
p2580
sI2581
S'profts'
p2581
sI2582
S'curve'
p2582
sI2583
S'program'
p2583
sI2584
S'teh'
p2584
sI2585
S'harmful'
p2585
sI2586
S'weighing'
p2586
sI2587
S'backlash'
p2587
sI2588
S'backing'
p2588
sI2589
S'frame'
p2589
sI2590
S'innovative'
p2590
sI2591
S'wasted'
p2591
sI2592
S'basically'
p2592
sI2593
S'purchasers'
p2593
sI2594
S'sufficent'
p2594
sI2595
S'finish'
p2595
sI2596
S'touch'
p2596
sI2597
S'calculating'
p2597
sI2598
S'survive'
p2598
sI2599
S'meets'
p2599
sI2600
S'living'
p2600
sI2601
S'maintainance'
p2601
sI2602
S'sunk'
p2602
sI2603
S'tough'
p2603
sI2604
S'confident'
p2604
sI2605
S'exploring'
p2605
sI2606
S'intention'
p2606
sI2607
S'keeps'
p2607
sI2608
S'doubts'
p2608
sI2609
S'streams'
p2609
sI2610
S'enhancing'
p2610
sI2611
S'therby'
p2611
sI2612
S'expecting'
p2612
sI2613
S'feels'
p2613
sI2614
S'evidentiary'
p2614
sI2615
S'went'
p2615
sI2616
S'thoughts'
p2616
sI2617
S'chooses'
p2617
sI2618
S'venture'
p2618
sI2619
S'researched'
p2619
sI2620
S'calls'
p2620
sI2621
S'wage'
p2621
sI2622
S'sacrificing'
p2622
sI2623
S'appeals'
p2623
sI2624
S'unacceptable'
p2624
sI2625
S'.the'
p2625
sI2626
S'timely'
p2626
sI2627
S'effected'
p2627
sI2628
S'filled'
p2628
sI2629
S'supplied'
p2629
sI2630
S'asses'
p2630
sI2631
S'free'
p2631
sI2632
S'roi'
p2632
sI2633
S'subsequent'
p2633
sI2634
S'maintains'
p2634
sI2635
S'closed'
p2635
sI2636
S'employ'
p2636
sI2637
S'opinions'
p2637
sI2638
S'records'
p2638
sI2639
S'investigated'
p2639
sI2640
S'broader'
p2640
sI2641
S'standing'
p2641
sI2642
S'owner'
p2642
sI2643
S'inevitably'
p2643
sI2644
S'defective'
p2644
sI2645
S'opt'
p2645
sI2646
S'attempting'
p2646
sI2647
S'boosting'
p2647
sI2648
S'shifts'
p2648
sI2649
S'ascertain'
p2649
sI2650
S'unintended'
p2650
sI2651
S'rival'
p2651
sI2652
S'aside'
p2652
sI2653
S'laws'
p2653
sI2654
S'advertisements'
p2654
sI2655
S'suit'
p2655
sI2656
S'likewise'
p2656
sI2657
S'utilizing'
p2657
sI2658
S'altering'
p2658
sI2659
S'shed'
p2659
sI2660
S'aurthor'
p2660
sI2661
S'decison'
p2661
sI2662
S'serves'
p2662
sI2663
S'field'
p2663
sI2664
S'habits'
p2664
sI2665
S'drawbacks'
p2665
sI2666
S'stores'
p2666
sI2667
S'procedure'
p2667
sI2668
S'spends'
p2668
sI2669
S'shared'
p2669
sI2670
S'differ'
p2670
sI2671
S'tangible'
p2671
sI2672
S'nowhere'
p2672
sI2673
S'ends'
p2673
sI2674
S'india'
p2674
sI2675
S'strengthening'
p2675
sI2676
S'overlooking'
p2676
sI2677
S'fatal'
p2677
sI2678
S'named'
p2678
sI2679
S'compensation'
p2679
sI2680
S'seeks'
p2680
sI2681
S'got'
p2681
sI2682
S'['
p2682
sI2683
S'ture'
p2683
sI2684
S'memorandum'
p2684
sI2685
S'makers'
p2685
sI2686
S'safely'
p2686
sI2687
S'clarified'
p2687
sI2688
S'debt'
p2688
sI2689
S'maket'
p2689
sI2690
S'adressed'
p2690
sI2691
S'assert'
p2691
sI2692
S'expansive'
p2692
sI2693
S'route'
p2693
sI2694
S'company`s'
p2694
sI2695
S'initiative'
p2695
sI2696
S'locations'
p2696
sI2697
S'bold'
p2697
sI2698
S"'ve"
p2698
sI2699
S'served'
p2699
sI2700
S'profile'
p2700
sI2701
S'inferior'
p2701
sI2702
S'attributed'
p2702
sI2703
S'untenable'
p2703
sI2704
S'publicity'
p2704
sI2705
S'rare'
p2705
sI2706
S'willingness'
p2706
sI2707
S'originally'
p2707
sI2708
S'neglect'
p2708
sI2709
S'patterns'
p2709
sI2710
S'inclusion'
p2710
sI2711
S'well-known'
p2711
sI2712
S'prohibitively'
p2712
sI2713
S'links'
p2713
sI2714
S'sought'
p2714
sI2715
S'powerful'
p2715
sI2716
S'generic'
p2716
sI2717
S'principles'
p2717
sI2718
S'severly'
p2718
sI2719
S'proportional'
p2719
sI2720
S'prepared'
p2720
sI2721
S'exchange'
p2721
sI2722
S'weighed'
p2722
sI2723
S'happened'
p2723
sI2724
S'realistic'
p2724
sI2725
S'influences'
p2725
sI2726
S'activity'
p2726
sI2727
S'identical'
p2727
sI2728
S'admittedly'
p2728
sI2729
S'china'
p2729
sI2730
S'complicated'
p2730
sI2731
S'backfire'
p2731
sI2732
S'demonstrating'
p2732
sI2733
S'implication'
p2733
sI2734
S'aid'
p2734
sI2735
S'cost-effective'
p2735
sI2736
S'family'
p2736
sI2737
S'held'
p2737
sI2738
S'adopted'
p2738
sI2739
S'adress'
p2739
sI2740
S'sake'
p2740
sI2741
S'attain'
p2741
sI2742
S'utilized'
p2742
sI2743
S'twenty'
p2743
sI2744
S'partially'
p2744
sI2745
S'millions'
p2745
sI2746
S'incurring'
p2746
sI2747
S'notes'
p2747
sI2748
S'company.the'
p2748
sI2749
S'neccessary'
p2749
sI2750
S'send'
p2750
sI2751
S'maker'
p2751
sI2752
S'disadvantage'
p2752
sI2753
S'restructuring'
p2753
sI2754
S'probability'
p2754
sI2755
S'owns'
p2755
sI2756
S'automotive'
p2756
sI2757
S'plenty'
p2757
sI2758
S'faces'
p2758
sI2759
S'weakening'
p2759
sI2760
S'depreciation'
p2760
sI2761
S'comsumers'
p2761
sI2762
S'ill-founded'
p2762
sI2763
S'predicts'
p2763
sI2764
S'simultaneously'
p2764
sI2765
S'payback'
p2765
sI2766
S']'
p2766
sI2767
S'reap'
p2767
sI2768
S'stance'
p2768
sI2769
S'language'
p2769
sI2770
S'threshold'
p2770
sI2771
S'sudden'
p2771
sI2772
S'house'
p2772
sI2773
S'advisable'
p2773
sI2774
S'onto'
p2774
sI2775
S'experts'
p2775
sI2776
S'causality'
p2776
sI2777
S'consist'
p2777
sI2778
S'departments'
p2778
sI2779
S'carries'
p2779
sI2780
S'weather'
p2780
sI2781
S'clarity'
p2781
sI2782
S'unreliable'
p2782
sI2783
S'rapidly'
p2783
sI2784
S'designs'
p2784
sI2785
S'stage'
p2785
sI2786
S'arugument'
p2786
sI2787
S'charges'
p2787
sI2788
S'sensitive'
p2788
sI2789
S'whatever'
p2789
sI2790
S'intentions'
p2790
sI2791
S'fierce'
p2791
sI2792
S'40'
p2792
sI2793
S'landscape'
p2793
sI2794
S'enter'
p2794
sI2795
S'inturn'
p2795
sI2796
S'reverse'
p2796
sI2797
S'letting'
p2797
sI2798
S'comfortable'
p2798
sI2799
S'ought'
p2799
sI2800
S'estimates'
p2800
sI2801
S'phone'
p2801
sI2802
S'finds'
p2802
sI2803
S'collect'
p2803
sI2804
S'anywhere'
p2804
sI2805
S'negate'
p2805
sI2806
S'understandable'
p2806
sI2807
S'arriving'
p2807
sI2808
S'engineering'
p2808
sI2809
S'overal'
p2809
sI2810
S'repeat'
p2810
sI2811
S'wont'
p2811
sI2812
S'investors'
p2812
sI2813
S'moves'
p2813
sI2814
S'officers'
p2814
sI2815
S'magnitude'
p2815
sI2816
S'upset'
p2816
sI2817
S'procedures'
p2817
sI2818
S'promising'
p2818
sI2819
S'adjusting'
p2819
sI2820
S'caters'
p2820
sI2821
S'worthy'
p2821
sI2822
S'wich'
p2822
sI2823
S'dealerships'
p2823
sI2824
S'determines'
p2824
sI2825
S'sustainable'
p2825
sI2826
S'stakeholders'
p2826
sI2827
S'approve'
p2827
sI2828
S'extend'
p2828
sI2829
S'destroy'
p2829
sI2830
S'representative'
p2830
sI2831
S'logistics'
p2831
sI2832
S'meant'
p2832
sI2833
S'strenthen'
p2833
sI2834
S'timeline'
p2834
sI2835
S'questioned'
p2835
sI2836
S'computer'
p2836
sI2837
S'functions'
p2837
sI2838
S'circumstance'
p2838
sI2839
S'clarification'
p2839
sI2840
S'organisation'
p2840
sI2841
S'unsounded'
p2841
sI2842
S'brief'
p2842
sI2843
S'stick'
p2843
sI2844
S'vice'
p2844
sI2845
S'lean'
p2845
sI2846
S'inadequate'
p2846
sI2847
S'hidden'
p2847
sI2848
S'owing'
p2848
sI2849
S'somewhere'
p2849
sI2850
S'non'
p2850
sI2851
S'outweighed'
p2851
sI2852
S'advocates'
p2852
sI2853
S'mechanics'
p2853
sI2854
S'friends'
p2854
sI2855
S'summarize'
p2855
sI2856
S'unnecessary'
p2856
sI2857
S'partiality'
p2857
sI2858
S'attracting'
p2858
sI2859
S'zero'
p2859
sI2860
S'nutshell'
p2860
sI2861
S'constraints'
p2861
sI2862
S'discounts'
p2862
sI2863
S'criteria'
p2863
sI2864
S'thousands'
p2864
sI2865
S'qualified'
p2865
sI2866
S'applying'
p2866
sI2867
S'holistic'
p2867
sI2868
S'leaps'
p2868
sI2869
S'age'
p2869
sI2870
S'break-even'
p2870
sI2871
S'thanks'
p2871
sI2872
S'strenghthen'
p2872
sI2873
S'renders'
p2873
sI2874
S'annually'
p2874
sI2875
S'in-depth'
p2875
sI2876
S'prone'
p2876
sI2877
S'optimize'
p2877
sI2878
S'likelihood'
p2878
sI2879
S'difficulties'
p2879
sI2880
S'classes'
p2880
sI2881
S'low-cost'
p2881
sI2882
S'dealers'
p2882
sI2883
S'incomes'
p2883
sI2884
S'quantify'
p2884
sI2885
S'pertinent'
p2885
sI2886
S'challenge'
p2886
sI2887
S'allocated'
p2887
sI2888
S'layoff'
p2888
sI2889
S'relationships'
p2889
sI2890
S'asking'
p2890
sI2891
S'arguemnt'
p2891
sI2892
S'versa'
p2892
sI2893
S'aimed'
p2893
sI2894
S'positioned'
p2894
sI2895
S'sounded'
p2895
sI2896
S'durable'
p2896
sI2897
S'legitimate'
p2897
sI2898
S'sees'
p2898
sI2899
S'timeframe'
p2899
sI2900
S'dealing'
p2900
sI2901
S'suspect'
p2901
sI2902
S'notably'
p2902
sI2903
S'attributes'
p2903
sI2904
S'jumping'
p2904
sI2905
S'allocate'
p2905
sI2906
S'manufactoring'
p2906
sI2907
S'individually'
p2907
sI2908
S'acquiring'
p2908
sI2909
S'except'
p2909
sI2910
S'stregthen'
p2910
sI2911
S'widely'
p2911
sI2912
S'sacrifice'
p2912
sI2913
S'alienating'
p2913
sI2914
S'excessive'
p2914
sI2915
S'criticism'
p2915
sI2916
S'encourage'
p2916
sI2917
S'turned'
p2917
sI2918
S'indicator'
p2918
sI2919
S'delay'
p2919
sI2920
S'maintanence'
p2920
sI2921
S'prohibitive'
p2921
sI2922
S'speak'
p2922
sI2923
S'/'
p2923
sI2924
S'typical'
p2924
sI2925
S'hastily'
p2925
sI2926
S'justifies'
p2926
sI2927
S'early'
p2927
sI2928
S'pointing'
p2928
sI2929
S'distinguish'
p2929
sI2930
S'translates'
p2930
sI2931
S'inspection'
p2931
sI2932
S'date'
p2932
sI2933
S'inaccurate'
p2933
sI2934
S'regarded'
p2934
sI2935
S'influencing'
p2935
sI2936
S'researches'
p2936
sI2937
S'fans'
p2937
sI2938
S'2000'
p2938
sI2939
S'practices'
p2939
sI2940
S'ambiguous'
p2940
sI2941
S'advertise'
p2941
sI2942
S'laborers'
p2942
sI2943
S'supplying'
p2943
sI2944
S'cast'
p2944
sI2945
S'believable'
p2945
sI2946
S'omit'
p2946
sI2947
S'definately'
p2947
sI2948
S'percieved'
p2948
sI2949
S'tax'
p2949
sI2950
S'usage'
p2950
sI2951
S'press'
p2951
sI2952
S'select'
p2952
sI2953
S'relevent'
p2953
sI2954
S'restructure'
p2954
sI2955
S'count'
p2955
sI2956
S'professional'
p2956
sI2957
S'tried'
p2957
sI2958
S'marketed'
p2958
sI2959
S'historically'
p2959
sI2960
S'amout'
p2960
sI2961
S'technique'
p2961
sI2962
S'anyone'
p2962
sI2963
S'contracts'
p2963
sI2964
S'25'
p2964
sI2965
S'instances'
p2965
sI2966
S'resolve'
p2966
sI2967
S'qualitative'
p2967
sI2968
S'convey'
p2968
sI2969
S'players'
p2969
sI2970
S'excerpt'
p2970
sI2971
S'traditional'
p2971
sI2972
S'constantly'
p2972
sI2973
S'effeciently'
p2973
sI2974
S'formula'
p2974
sI2975
S'simplistic'
p2975
sI2976
S'prospects'
p2976
sI2977
S'augument'
p2977
sI2978
S'familiar'
p2978
sI2979
S'peak'
p2979
sI2980
S'everyday'
p2980
sI2981
S'identifying'
p2981
sI2982
S'combining'
p2982
sI2983
S'healthy'
p2983
sI2984
S'resonable'
p2984
sI2985
S'utilization'
p2985
sI2986
S'wrote'
p2986
sI2987
S'enlarge'
p2987
sI2988
S'occurs'
p2988
sI2989
S'young'
p2989
sI2990
S'combine'
p2990
sI2991
S'catering'
p2991
sI2992
S'conslusion'
p2992
sI2993
S'dream'
p2993
sI2994
S'shifted'
p2994
sI2995
S'reflects'
p2995
sI2996
S'anyway'
p2996
sI2997
S'worst'
p2997
sI2998
S'faults'
p2998
sI2999
S'appeared'
p2999
sI3000
S'fraction'
p3000
sI3001
S'advance'
p3001
sI3002
S'enjoys'
p3002
sI3003
S'sensible'
p3003
sI3004
S'specified'
p3004
sI3005
S'refers'
p3005
sI3006
S'foolish'
p3006
sI3007
S'implicit'
p3007
sI3008
S'certainty'
p3008
sI3009
S'outsourcing'
p3009
sI3010
S'irrelevant'
p3010
sI3011
S'employing'
p3011
sI3012
S'branded'
p3012
sI3013
S'benifit'
p3013
sI3014
S'affluent'
p3014
sI3015
S'promise'
p3015
sI3016
S'vary'
p3016
sI3017
S'disaster'
p3017
sI3018
S'split'
p3018
sI3019
S'prompt'
p3019
sI3020
S'cogent'
p3020
sI3021
S'independent'
p3021
sI3022
S'pays'
p3022
sI3023
S'negligible'
p3023
sI3024
S'lie'
p3024
sI3025
S'terminology'
p3025
sI3026
S'delivered'
p3026
sI3027
S'specialization'
p3027
sI3028
S'unfair'
p3028
sI3029
S'15'
p3029
sI3030
S'shutdown'
p3030
sI3031
S'cost-efficient'
p3031
sI3032
S'indicators'
p3032
sI3033
S'gurantee'
p3033
sI3034
S'inadequacy'
p3034
sI3035
S'presentation'
p3035
sI3036
S'essence'
p3036
sI3037
S'fancy'
p3037
sI3038
S'usd'
p3038
sI3039
S'six'
p3039
sI3040
S'contention'
p3040
sI3041
S'differential'
p3041
sI3042
S'increaseing'
p3042
sI3043
S'additon'
p3043
sI3044
S'attained'
p3044
sI3045
S'conclusively'
p3045
sI3046
S'refer'
p3046
sI3047
S'althought'
p3047
sI3048
S'objectives'
p3048
sI3049
S'd'
p3049
sI3050
S'consistently'
p3050
sI3051
S'naturally'
p3051
sI3052
S'50,000'
p3052
sI3053
S'spread'
p3053
sI3054
S'remained'
p3054
sI3055
S'moved'
p3055
sI3056
S'fo'
p3056
sI3057
S'pretty'
p3057
sI3058
S'elaborated'
p3058
sI3059
S'moral'
p3059
sI3060
S'cant'
p3060
sI3061
S'attached'
p3061
sI3062
S'talked'
p3062
sI3063
S'forecasting'
p3063
sI3064
S'maintainence'
p3064
sI3065
S'conpany'
p3065
sI3066
S'divisions'
p3066
sI3067
S'tool'
p3067
sI3068
S'enterprise'
p3068
sI3069
S'sports'
p3069
sI3070
S'maximise'
p3070
sI3071
S'relied'
p3071
sI3072
S'long-run'
p3072
sI3073
S'breaking'
p3073
sI3074
S'downturn'
p3074
sI3075
S'whom'
p3075
sI3076
S'shipping'
p3076
sI3077
S'60'
p3077
sI3078
S'trade'
p3078
sI3079
S'paper'
p3079
sI3080
S'detailing'
p3080
sI3081
S'phones'
p3081
sI3082
S'meaningful'
p3082
sI3083
S'co.'
p3083
sI3084
S'emphasis'
p3084
sI3085
S'bound'
p3085
sI3086
S'switches'
p3086
sI3087
S'launch'
p3087
sI3088
S'american'
p3088
sI3089
S'reflected'
p3089
sI3090
S'likes'
p3090
sI3091
S'exisiting'
p3091
sI3092
S'disposable'
p3092
sI3093
S'classic'
p3093
sI3094
S'covers'
p3094
sI3095
S'answering'
p3095
sI3096
S'wonder'
p3096
sI3097
S'struggling'
p3097
sI3098
S'focussing'
p3098
sI3099
S'replaces'
p3099
sI3100
S'y'
p3100
sI3101
S'300'
p3101
sI3102
S'achive'
p3102
sI3103
S'chunk'
p3103
sI3104
S'pursuasive'
p3104
sI3105
S'charging'
p3105
sI3106
S'unconvicing'
p3106
sI3107
S'viewpoint'
p3107
sI3108
S'presumes'
p3108
sI3109
S'motivation'
p3109
sI3110
S'priority'
p3110
sI3111
S'decent'
p3111
sI3112
S'gauge'
p3112
sI3113
S'falling'
p3113
sI3114
S'tasks'
p3114
sI3115
S'luxuries'
p3115
sI3116
S'incrase'
p3116
sI3117
S'possibilty'
p3117
sI3118
S'fixing'
p3118
sI3119
S'gathered'
p3119
sI3120
S'shrinking'
p3120
sI3121
S'edition'
p3121
sI3122
S'saves'
p3122
sI3123
S'involving'
p3123
sI3124
S'pursuing'
p3124
sI3125
S'balanced'
p3125
sI3126
S'read'
p3126
sI3127
S'pool'
p3127
sI3128
S'modify'
p3128
sI3129
S'reject'
p3129
sI3130
S'strengthed'
p3130
sI3131
S'estimation'
p3131
sI3132
S'clothes'
p3132
sI3133
S'upgrading'
p3133
sI3134
S'machinary'
p3134
sI3135
S'advised'
p3135
sI3136
S'sample'
p3136
sI3137
S'shopping'
p3137
sI3138
S'aiming'
p3138
sI3139
S'mislead'
p3139
sI3140
S'decrese'
p3140
sI3141
S'unwarrented'
p3141
sI3142
S'equilibrium'
p3142
sI3143
S'refuted'
p3143
sI3144
S'engine'
p3144
sI3145
S'perfer'
p3145
sI3146
S'water'
p3146
sI3147
S'jumps'
p3147
sI3148
S'infers'
p3148
sI3149
S'branch'
p3149
sI3150
S'cutomers'
p3150
sI3151
S'ranging'
p3151
sI3152
S'aslo'
p3152
sI3153
S'sign'
p3153
sI3154
S'commonly'
p3154
sI3155
S'predictions'
p3155
sI3156
S'overhaul'
p3156
sI3157
S'hinges'
p3157
sI3158
S'illustrates'
p3158
sI3159
S'illustrated'
p3159
sI3160
S'accuracy'
p3160
sI3161
S'site'
p3161
sI3162
S'soundness'
p3162
sI3163
S'compromise'
p3163
sI3164
S'clothing'
p3164
sI3165
S'suffice'
p3165
sI3166
S'buisness'
p3166
sI3167
S'diminished'
p3167
sI3168
S'specifics'
p3168
sI3169
S'content'
p3169
sI3170
S'datas'
p3170
sI3171
S'disregards'
p3171
sI3172
S'payroll'
p3172
sI3173
S'arises'
p3173
sI3174
S'believing'
p3174
sI3175
S'commodity'
p3175
sI3176
S'deny'
p3176
sI3177
S'concepts'
p3177
sI3178
S'reviewing'
p3178
sI3179
S'entail'
p3179
sI3180
S'decades'
p3180
sI3181
S'contained'
p3181
sI3182
S'equipped'
p3182
sI3183
S'6'
p3183
sI3184
S'critically'
p3184
sI3185
S'carrying'
p3185
sI3186
S'researching'
p3186
sI3187
S'undertaking'
p3187
sI3188
S'accompanied'
p3188
sI3189
S'delivery'
p3189
sI3190
S'unconvinced'
p3190
sI3191
S'packages'
p3191
sI3192
S'rendering'
p3192
sI3193
S'lowest'
p3193
sI3194
S'absent'
p3194
sI3195
S'physical'
p3195
sI3196
S'update'
p3196
sI3197
S'challenges'
p3197
sI3198
S'editorial'
p3198
sI3199
S'unexpected'
p3199
sI3200
S'determination'
p3200
sI3201
S'composition'
p3201
sI3202
S'precisely'
p3202
sI3203
S'reinforce'
p3203
sI3204
S'skim'
p3204
sI3205
S'minimizing'
p3205
sI3206
S'intial'
p3206
sI3207
S'appetite'
p3207
sI3208
S'medium'
p3208
sI3209
S'promoting'
p3209
sI3210
S'dropped'
p3210
sI3211
S'theoretically'
p3211
sI3212
S'advantageous'
p3212
sI3213
S'flat'
p3213
sI3214
S'70'
p3214
sI3215
S'ample'
p3215
sI3216
S'advise'
p3216
sI3217
S'nice'
p3217
sI3218
S'yeild'
p3218
sI3219
S'record'
p3219
sI3220
S'ease'
p3220
sI3221
S'ineffective'
p3221
sI3222
S'quarter'
p3222
sI3223
S'leadership'
p3223
sI3224
S'necessity'
p3224
sI3225
S'diversify'
p3225
sI3226
S'justifying'
p3226
sI3227
S'highlights'
p3227
sI3228
S'coherent'
p3228
sI3229
S'applies'
p3229
sI3230
S'extended'
p3230
sI3231
S'post'
p3231
sI3232
S'devoted'
p3232
sI3233
S'fuel'
p3233
sI3234
S'differently'
p3234
sI3235
S'agument'
p3235
sI3236
S'topics'
p3236
sI3237
S'proft'
p3237
sI3238
S'sophisticated'
p3238
sI3239
S'justifiable'
p3239
sI3240
S'reasonings'
p3240
sI3241
S'hundreds'
p3241
sI3242
S'thesis'
p3242
sI3243
S'specialize'
p3243
sI3244
S'strenghen'
p3244
sI3245
S'r'
p3245
sI3246
S'definite'
p3246
sI3247
S'ot'
p3247
sI3248
S'competitiveness'
p3248
sI3249
S'fourthly'
p3249
sI3250
S'75'
p3250
sI3251
S'acquired'
p3251
sI3252
S'execute'
p3252
sI3253
S'inside'
p3253
sI3254
S'omitting'
p3254
sI3255
S'attraction'
p3255
sI3256
S'occupy'
p3256
sI3257
S'verified'
p3257
sI3258
S'startegy'
p3258
sI3259
S'places'
p3259
sI3260
S'confirmed'
p3260
sI3261
S'shoud'
p3261
sI3262
S'remember'
p3262
sI3263
S'hurts'
p3263
sI3264
S'exponentially'
p3264
sI3265
S'experiences'
p3265
sI3266
S'newer'
p3266
sI3267
S'serveral'
p3267
sI3268
S'testing'
p3268
sI3269
S'supposing'
p3269
sI3270
S'assurance'
p3270
sI3271
S'innovations'
p3271
sI3272
S'5000'
p3272
sI3273
S'cost/benefit'
p3273
sI3274
S'body'
p3274
sI3275
S'nobody'
p3275
sI3276
S'comment'
p3276
sI3277
S'wealthier'
p3277
sI3278
S'vastly'
p3278
sI3279
S'comfort'
p3279
sI3280
S'anaylsis'
p3280
sI3281
S'realise'
p3281
sI3282
S'sence'
p3282
sI3283
S'behaviour'
p3283
sI3284
S'shortcomings'
p3284
sI3285
S'finances'
p3285
sI3286
S'flows'
p3286
sI3287
S'undertaken'
p3287
sI3288
S'retaining'
p3288
sI3289
S'stays'
p3289
sI3290
S'insignificant'
p3290
sI3291
S'accomplished'
p3291
sI3292
S'allowed'
p3292
sI3293
S'fund'
p3293
sI3294
S'storing'
p3294
sI3295
S'land'
p3295
sI3296
S'legal'
p3296
sI3297
S'marketshare'
p3297
sI3298
S'penetration'
p3298
sI3299
S'families'
p3299
sI3300
S'wheather'
p3300
sI3301
S'downward'
p3301
sI3302
S'signal'
p3302
sI3303
S'positions'
p3303
sI3304
S'utility'
p3304
sI3305
S'counterexamples'
p3305
sI3306
S'frequent'
p3306
sI3307
S'needing'
p3307
sI3308
S'rivals'
p3308
sI3309
S'recommending'
p3309
sI3310
S'writing'
p3310
sI3311
S'recieve'
p3311
sI3312
S'catch'
p3312
sI3313
S'insights'
p3313
sI3314
S'minor'
p3314
sI3315
S'outstanding'
p3315
sI3316
S'declined'
p3316
sI3317
S'vendors'
p3317
sI3318
S'sentiment'
p3318
sI3319
S'citizens'
p3319
sI3320
S'o'
p3320
sI3321
S"'m"
p3321
sI3322
S'divided'
p3322
sI3323
S'confidently'
p3323
sI3324
S'ratios'
p3324
sI3325
S'handling'
p3325
sI3326
S'empirical'
p3326
sI3327
S'triple'
p3327
sI3328
S'sharply'
p3328
sI3329
S'lifestyle'
p3329
sI3330
S'fiscal'
p3330
sI3331
S'band'
p3331
sI3332
S'perceptions'
p3332
sI3333
S'prepare'
p3333
sI3334
S'imformation'
p3334
sI3335
S'partly'
p3335
sI3336
S'presupposes'
p3336
sI3337
S'rendered'
p3337
sI3338
S'improtant'
p3338
sI3339
S'reviews'
p3339
sI3340
S'bags'
p3340
sI3341
S'mistakenly'
p3341
sI3342
S'ruin'
p3342
sI3343
S'expert'
p3343
sI3344
S'strive'
p3344
sI3345
S'incentive'
p3345
sI3346
S'introduces'
p3346
sI3347
S'assesment'
p3347
sI3348
S'endeavor'
p3348
sI3349
S'segmentation'
p3349
sI3350
S'retraining'
p3350
sI3351
S'unions'
p3351
sI3352
S'became'
p3352
sI3353
S'incresed'
p3353
sI3354
S'authour'
p3354
sI3355
S'strike'
p3355
sI3356
S'detriment'
p3356
sI3357
S'overweigh'
p3357
sI3358
S"'d"
p3358
sI3359
S'speculation'
p3359
sI3360
S'yielding'
p3360
sI3361
S'policies'
p3361
sI3362
S'grounded'
p3362
sI3363
S'attitude'
p3363
sI3364
S'thats'
p3364
sI3365
S'chosen'
p3365
sI3366
S'sourcing'
p3366
sI3367
S'ther'
p3367
sI3368
S'showroom'
p3368
sI3369
S'intend'
p3369
sI3370
S'dealership'
p3370
sI3371
S'outlining'
p3371
sI3372
S'blindly'
p3372
sI3373
S'discounted'
p3373
sI3374
S'processing'
p3374
sI3375
S'drops'
p3375
sI3376
S'managment'
p3376
sI3377
S'confused'
p3377
sI3378
S'eggs'
p3378
sI3379
S'implicitly'
p3379
sI3380
S'selection'
p3380
sI3381
S'badly'
p3381
sI3382
S'delays'
p3382
sI3383
S'warehouses'
p3383
sI3384
S'art'
p3384
sI3385
S'='
p3385
sI3386
S'deemed'
p3386
sI3387
S'men'
p3387
sI3388
S'derive'
p3388
sI3389
S'straight'
p3389
sI3390
S'mature'
p3390
sI3391
S'experiencing'
p3391
sI3392
S'purposes'
p3392
sI3393
S'arguements'
p3393
sI3394
S'campaigns'
p3394
sI3395
S'sighted'
p3395
sI3396
S'backup'
p3396
sI3397
S'conventional'
p3397
sI3398
S'user'
p3398
sI3399
S'clientel'
p3399
sI3400
S'correlates'
p3400
sI3401
S'monitor'
p3401
sI3402
S'indirectly'
p3402
sI3403
S'verses'
p3403
sI3404
S'satisfying'
p3404
sI3405
S'disastrous'
p3405
sI3406
S'lovers'
p3406
sI3407
S'perspectives'
p3407
sI3408
S'saling'
p3408
sI3409
S'overly'
p3409
sI3410
S'mindset'
p3410
sI3411
S'composed'
p3411
sI3412
S'comparatively'
p3412
sI3413
S'represented'
p3413
sI3414
S'tremendously'
p3414
sI3415
S'beacause'
p3415
sI3416
S'news'
p3416
sI3417
S'reasearch'
p3417
sI3418
S'c'
p3418
sI3419
S'transferring'
p3419
sI3420
S'inference'
p3420
sI3421
S'disclose'
p3421
sI3422
S'ended'
p3422
sI3423
S'boom'
p3423
sI3424
S'specially'
p3424
sI3425
S'appropriately'
p3425
sI3426
S'significance'
p3426
sI3427
S'costumer'
p3427
sI3428
S'evidently'
p3428
sI3429
S'fame'
p3429
sI3430
S'avenues'
p3430
sI3431
S'receives'
p3431
sI3432
S'wasting'
p3432
sI3433
S'rarely'
p3433
sI3434
S'intent'
p3434
sI3435
S'latest'
p3435
sI3436
S'masses'
p3436
sI3437
S'exceeded'
p3437
sI3438
S'increasingly'
p3438
sI3439
S'weakly'
p3439
sI3440
S'careless'
p3440
sI3441
S'dedicate'
p3441
sI3442
S'investigating'
p3442
sI3443
S'timing'
p3443
sI3444
S'pattern'
p3444
sI3445
S'usual'
p3445
sI3446
S'ungrounded'
p3446
sI3447
S'periods'
p3447
sI3448
S'consolidate'
p3448
sI3449
S'rider'
p3449
sI3450
S'devastating'
p3450
sI3451
S'spite'
p3451
sI3452
S'stuck'
p3452
sI3453
S'stagnant'
p3453
sI3454
S'succesful'
p3454
sI3455
S'styles'
p3455
sI3456
S'conclustion'
p3456
sI3457
S'radical'
p3457
sI3458
S'elasticity'
p3458
sI3459
S'etc.'
p3459
sI3460
S'loyality'
p3460
sI3461
S'findings'
p3461
sI3462
S'sectors'
p3462
sI3463
S'managing'
p3463
sI3464
S'monthly'
p3464
sI3465
S'prodcuts'
p3465
sI3466
S'ago'
p3466
sI3467
S'bulid'
p3467
sI3468
S'misguided'
p3468
sI3469
S'additionaly'
p3469
sI3470
S'erode'
p3470
sI3471
S'presumptuous'
p3471
sI3472
S'collected'
p3472
sI3473
S'exceeding'
p3473
sI3474
S'himself'
p3474
sI3475
S'evalute'
p3475
sI3476
S'deter'
p3476
sI3477
S'enables'
p3477
sI3478
S'determing'
p3478
sI3479
S'international'
p3479
sI3480
S'short-sighted'
p3480
sI3481
S'express'
p3481
sI3482
S'failures'
p3482
sI3483
S'presently'
p3483
sI3484
S'justifications'
p3484
sI3485
S'skillful'
p3485
sI3486
S'constructing'
p3486
sI3487
S'fulfilled'
p3487
sI3488
S'appearance'
p3488
sI3489
S'judgment'
p3489
sI3490
S'highlighting'
p3490
sI3491
S'parallel'
p3491
sI3492
S'transfering'
p3492
sI3493
S'rent'
p3493
sI3494
S'strengths'
p3494
sI3495
S'deduce'
p3495
sI3496
S'executing'
p3496
sI3497
S'functioning'
p3497
sI3498
S'undertake'
p3498
sI3499
S'linking'
p3499
sI3500
S'story'
p3500
sI3501
S'suspicious'
p3501
sI3502
S'separately'
p3502
sI3503
S'deals'
p3503
sI3504
S'united'
p3504
sI3505
S'atleast'
p3505
sI3506
S'ensuring'
p3506
sI3507
S'crowd'
p3507
sI3508
S'creative'
p3508
sI3509
S'one-time'
p3509
sI3510
S'servicing'
p3510
sI3511
S'solved'
p3511
sI3512
S'influx'
p3512
sI3513
S'incentives'
p3513
sI3514
S'barely'
p3514
sI3515
S'projects'
p3515
sI3516
S'contributor'
p3516
sI3517
S'length'
p3517
sI3518
S'ordering'
p3518
sI3519
S'decade'
p3519
sI3520
S'explaination'
p3520
sI3521
S'heart'
p3521
sI3522
S'bankrupt'
p3522
sI3523
S'write'
p3523
sI3524
S'omission'
p3524
sI3525
S'throw'
p3525
sI3526
S'stored'
p3526
sI3527
S'describing'
p3527
sI3528
S'arument'
p3528
sI3529
S'quit'
p3529
sI3530
S'motive'
p3530
sI3531
S'forgot'
p3531
sI3532
S'arrived'
p3532
sI3533
S'observation'
p3533
sI3534
S'implying'
p3534
sI3535
S'incorporating'
p3535
sI3536
S'convinving'
p3536
sI3537
S'proposals'
p3537
sI3538
S'pure'
p3538
sI3539
S'ongoing'
p3539
sI3540
S'movement'
p3540
sI3541
S'responsibility'
p3541
sI3542
S'percentages'
p3542
sI3543
S'untrue'
p3543
sI3544
S'compromising'
p3544
sI3545
S'procurement'
p3545
sI3546
S'released'
p3546
sI3547
S'risking'
p3547
sI3548
S'stocks'
p3548
sI3549
S'multitude'
p3549
sI3550
S'consulting'
p3550
sI3551
S'creat'
p3551
sI3552
S'unforseen'
p3552
sI3553
S'expressed'
p3553
sI3554
S'owned'
p3554
sI3555
S'covering'
p3555
sI3556
S'pose'
p3556
sI3557
S'discover'
p3557
sI3558
S'sheer'
p3558
sI3559
S'author`s'
p3559
sI3560
S'terrible'
p3560
sI3561
S'connected'
p3561
sI3562
S'limits'
p3562
sI3563
S'began'
p3563
sI3564
S'star'
p3564
sI3565
S'substantiating'
p3565
sI3566
S'managed'
p3566
sI3567
S'allocating'
p3567
sI3568
S'ranges'
p3568
sI3569
S'competative'
p3569
sI3570
S'safer'
p3570
sI3571
S'identifies'
p3571
sI3572
S'quo'
p3572
sI3573
S'payment'
p3573
sI3574
S'corroborate'
p3574
sI3575
S'accidents'
p3575
sI3576
S'competitiors'
p3576
sI3577
S'existed'
p3577
sI3578
S'well-supported'
p3578
sI3579
S'contributions'
p3579
sI3580
S'pushing'
p3580
sI3581
S'infomation'
p3581
sI3582
S'incredibly'
p3582
sI3583
S'welcomed'
p3583
sI3584
S'assured'
p3584
sI3585
S'outlay'
p3585
sI3586
S'lacked'
p3586
sI3587
S'structured'
p3587
sI3588
S'prime'
p3588
sI3589
S'deduction'
p3589
sI3590
S'te'
p3590
sI3591
S'reliance'
p3591
sI3592
S'writes'
p3592
sI3593
S'improves'
p3593
sI3594
S'worldwide'
p3594
sI3595
S'optimum'
p3595
sI3596
S'explicit'
p3596
sI3597
S'checked'
p3597
sI3598
S'fifty'
p3598
sI3599
S'worry'
p3599
sI3600
S'concentration'
p3600
sI3601
S'commercial'
p3601
sI3602
S'high-level'
p3602
sI3603
S'slowly'
p3603
sI3604
S'proofs'
p3604
sI3605
S'limitations'
p3605
sI3606
S'credit'
p3606
sI3607
S'efficacy'
p3607
sI3608
S'ship'
p3608
sI3609
S'dig'
p3609
sI3610
S'till'
p3610
sI3611
S'basket'
p3611
sI3612
S'employers'
p3612
sI3613
S'adjustments'
p3613
sI3614
S'retailers'
p3614
sI3615
S'measuring'
p3615
sI3616
S'reflections'
p3616
sI3617
S'emphasize'
p3617
sI3618
S'names'
p3618
sI3619
S'environmental'
p3619
sI3620
S'whatsoever'
p3620
sI3621
S'street'
p3621
sI3622
S'executed'
p3622
sI3623
S'wear'
p3623
sI3624
S'positives'
p3624
sI3625
S'synergies'
p3625
sI3626
S'operators'
p3626
sI3627
S'argumet'
p3627
sI3628
S'hypothetically'
p3628
sI3629
S'align'
p3629
sI3630
S'custumers'
p3630
sI3631
S'hypothetical'
p3631
sI3632
S'spectrum'
p3632
sI3633
S'poses'
p3633
sI3634
S'oversight'
p3634
sI3635
S'tendency'
p3635
sI3636
S'formed'
p3636
sI3637
S'corrected'
p3637
sI3638
S'tested'
p3638
sI3639
S'beautiful'
p3639
sI3640
S'hoping'
p3640
sI3641
S'partial'
p3641
sI3642
S'bolstered'
p3642
sI3643
S'forcast'
p3643
sI3644
S'observed'
p3644
sI3645
S'shrink'
p3645
sI3646
S'belive'
p3646
sI3647
S'p'
p3647
sI3648
S'sending'
p3648
sI3649
S'serving'
p3649
sI3650
S'overview'
p3650
sI3651
S'controlled'
p3651
sI3652
S'assums'
p3652
sI3653
S'computers'
p3653
sI3654
S'fruitful'
p3654
sI3655
S'undergo'
p3655
sI3656
S'scheme'
p3656
sI3657
S'morever'
p3657
sI3658
S'game'
p3658
sI3659
S'additions'
p3659
sI3660
S'lives'
p3660
sI3661
S'void'
p3661
sI3662
S'inconvincing'
p3662
sI3663
S'older'
p3663
sI3664
S'establishes'
p3664
sI3665
S'bag'
p3665
sI3666
S'comprehensively'
p3666
sI3667
S'disappear'
p3667
sI3668
S'counterproductive'
p3668
sI3669
S'gaurantee'
p3669
sI3670
S'staffs'
p3670
sI3671
S'town'
p3671
sI3672
S'sharp'
p3672
sI3673
S'conlcusion'
p3673
sI3674
S'argument.the'
p3674
sI3675
S'difficulty'
p3675
sI3676
S'8'
p3676
sI3677
S'causation'
p3677
sI3678
S'employs'
p3678
sI3679
S'approaches'
p3679
sI3680
S'incurs'
p3680
sI3681
S'head'
p3681
sI3682
S'hear'
p3682
sI3683
S'obsolete'
p3683
sI3684
S'rethink'
p3684
sI3685
S'informs'
p3685
sI3686
S'food'
p3686
sI3687
S'obtaining'
p3687
sI3688
S'cities'
p3688
sI3689
S'inability'
p3689
sI3690
S'i.e.'
p3690
sI3691
S'decission'
p3691
sI3692
S'competion'
p3692
sI3693
S'defining'
p3693
sI3694
S'overtime'
p3694
sI3695
S'agreed'
p3695
sI3696
S'hole'
p3696
sI3697
S'increment'
p3697
sI3698
S'investement'
p3698
sI3699
S'substitutes'
p3699
sI3700
S'comsumer'
p3700
sI3701
S'conscious'
p3701
sI3702
S'outputs'
p3702
sI3703
S'allocation'
p3703
sI3704
S'favorite'
p3704
sI3705
S'door'
p3705
sI3706
S'leverage'
p3706
sI3707
S'remedy'
p3707
sI3708
S'defines'
p3708
sI3709
S'redundant'
p3709
sI3710
S'taxes'
p3710
sI3711
S'resoning'
p3711
sI3712
S'secure'
p3712
sI3713
S'devote'
p3713
sI3714
S'erroneous'
p3714
sI3715
S'apples'
p3715
sI3716
S'import'
p3716
sI3717
S'deficit'
p3717
sI3718
S'central'
p3718
sI3719
S'benifits'
p3719
sI3720
S'loopholes'
p3720
sI3721
S'dissatisfaction'
p3721
sI3722
S'ordered'
p3722
sI3723
S'transport'
p3723
sI3724
S'danger'
p3724
sI3725
S'pivotal'
p3725
sI3726
S'precious'
p3726
sI3727
S'weeks'
p3727
sI3728
S'uncertainty'
p3728
sI3729
S'maximization'
p3729
sI3730
S'sharing'
p3730
sI3731
S'neccesarily'
p3731
sI3732
S'booming'
p3732
sI3733
S'returning'
p3733
sI3734
S'industrial'
p3734
sI3735
S'connect'
p3735
sI3736
S'taht'
p3736
sI3737
S'aurgument'
p3737
sI3738
S'shape'
p3738
sI3739
S'seats'
p3739
sI3740
S'competetive'
p3740
sI3741
S'reductions'
p3741
sI3742
S'unconving'
p3742
sI3743
S'sustained'
p3743
sI3744
S'lowers'
p3744
sI3745
S'irrational'
p3745
sI3746
S'possiblities'
p3746
sI3747
S'rosy'
p3747
sI3748
S'finaly'
p3748
sI3749
S'utilizes'
p3749
sI3750
S'guess'
p3750
sI3751
S'intense'
p3751
sI3752
S'assuption'
p3752
sI3753
S'richer'
p3753
sI3754
S'smoothly'
p3754
sI3755
S'dealer'
p3755
sI3756
S'matched'
p3756
sI3757
S'entering'
p3757
sI3758
S'prefered'
p3758
sI3759
S'saw'
p3759
sI3760
S'self'
p3760
sI3761
S'guarentee'
p3761
sI3762
S'captial'
p3762
sI3763
S'sucess'
p3763
sI3764
S'fits'
p3764
sI3765
S'studying'
p3765
sI3766
S'schedule'
p3766
sI3767
S'smooth'
p3767
sI3768
S'incorporated'
p3768
sI3769
S'approximately'
p3769
sI3770
S'deteriorate'
p3770
sI3771
S'dedicating'
p3771
sI3772
S'differentiating'
p3772
sI3773
S'forcing'
p3773
sI3774
S'entails'
p3774
sI3775
S'committed'
p3775
sI3776
S'sweeping'
p3776
sI3777
S'referred'
p3777
sI3778
S'financing'
p3778
sI3779
S'maximized'
p3779
sI3780
S'noticed'
p3780
sI3781
S'concise'
p3781
sI3782
S'suffered'
p3782
sI3783
S'asserting'
p3783
sI3784
S'cause-and-effect'
p3784
sI3785
S'designer'
p3785
sI3786
S'crowded'
p3786
sI3787
S'aggregate'
p3787
sI3788
S'specifications'
p3788
sI3789
S'disregard'
p3789
sI3790
S'confusion'
p3790
sI3791
S'protect'
p3791
sI3792
S'decision-making'
p3792
sI3793
S'proceeding'
p3793
sI3794
S'speaks'
p3794
sI3795
S'renovation'
p3795
sI3796
S'assertions'
p3796
sI3797
S'garner'
p3797
sI3798
S'furthur'
p3798
sI3799
S'vendor'
p3799
sI3800
S'gradually'
p3800
sI3801
S'dicision'
p3801
sI3802
S'definitively'
p3802
sI3803
S'table'
p3803
sI3804
S'charts'
p3804
sI3805
S'layout'
p3805
sI3806
S'substance'
p3806
sI3807
S'player'
p3807
sI3808
S'pull'
p3808
sI3809
S'pick'
p3809
sI3810
S'rises'
p3810
sI3811
S'rooted'
p3811
sI3812
S'acceptance'
p3812
sI3813
S'virtually'
p3813
sI3814
S'thin'
p3814
sI3815
S'weaker'
p3815
sI3816
S'establishment'
p3816
sI3817
S'collection'
p3817
sI3818
S'stuff'
p3818
sI3819
S'catastrophic'
p3819
sI3820
S'arugement'
p3820
sI3821
S'extremly'
p3821
sI3822
S'phase'
p3822
sI3823
S'scarcity'
p3823
sI3824
S'marked'
p3824
sI3825
S'challenged'
p3825
sI3826
S'rebranding'
p3826
sI3827
S'placing'
p3827
sI3828
S'fond'
p3828
sI3829
S'telling'
p3829
sI3830
S'strengthend'
p3830
sI3831
S'ie'
p3831
sI3832
S'macro'
p3832
sI3833
S'insurance'
p3833
sI3834
S'stengthen'
p3834
sI3835
S'directed'
p3835
sI3836
S'implausible'
p3836
sI3837
S'upcoming'
p3837
sI3838
S'didnt'
p3838
sI3839
S'red'
p3839
sI3840
S'regularly'
p3840
sI3841
S'progress'
p3841
sI3842
S'definetly'
p3842
sI3843
S'lessen'
p3843
sI3844
S'contract'
p3844
sI3845
S'lossing'
p3845
sI3846
S'recognise'
p3846
sI3847
S'fan'
p3847
sI3848
S'becase'
p3848
sI3849
S'supposedly'
p3849
sI3850
S'sections'
p3850
sI3851
S'enought'
p3851
sI3852
S'occured'
p3852
sI3853
S'abandoned'
p3853
sI3854
S'unforeseen'
p3854
sI3855
S'channels'
p3855
sI3856
S'acquisition'
p3856
sI3857
S'unaware'
p3857
sI3858
S'constitutes'
p3858
sI3859
S'oversimplifies'
p3859
sI3860
S'observe'
p3860
sI3861
S'ideally'
p3861
sI3862
S'pass'
p3862
sI3863
S'accepting'
p3863
sI3864
S'substancial'
p3864
sI3865
S'comprise'
p3865
sI3866
S'eager'
p3866
sI3867
S'suffering'
p3867
sI3868
S'agreement'
p3868
sI3869
S'span'
p3869
sI3870
S'centers'
p3870
sI3871
S'profitablility'
p3871
sI3872
S'ties'
p3872
sI3873
S'overheads'
p3873
sI3874
S'tenuous'
p3874
sI3875
S'sellers'
p3875
sI3876
S'optimized'
p3876
sI3877
S'engines'
p3877
sI3878
S'whereby'
p3878
sI3879
S'critique'
p3879
sI3880
S'confusing'
p3880
sI3881
S'learning'
p3881
sI3882
S'cares'
p3882
sI3883
S'stems'
p3883
sI3884
S'respected'
p3884
sI3885
S'persuading'
p3885
sI3886
S'anticipate'
p3886
sI3887
S'wheter'
p3887
sI3888
S'ensures'
p3888
sI3889
S'immense'
p3889
sI3890
S'home'
p3890
sI3891
S'display'
p3891
sI3892
S'struggle'
p3892
sI3893
S'don'
p3893
sI3894
S'outdated'
p3894
sI3895
S'signficant'
p3895
sI3896
S'possess'
p3896
sI3897
S'par'
p3897
sI3898
S'truely'
p3898
sI3899
S'staffing'
p3899
sI3900
S'unsatisfied'
p3900
sI3901
S'argumnet'
p3901
sI3902
S'longterm'
p3902
sI3903
S'hopefully'
p3903
sI3904
S'varying'
p3904
sI3905
S'downfall'
p3905
sI3906
S'paramount'
p3906
sI3907
S'imposing'
p3907
sI3908
S'rash'
p3908
sI3909
S'adjustment'
p3909
sI3910
S'demostrate'
p3910
sI3911
S'fear'
p3911
sI3912
S'counterexample'
p3912
sI3913
S'surge'
p3913
sI3914
S'tempting'
p3914
sI3915
S'survival'
p3915
sI3916
S'fot'
p3916
sI3917
S'groudless'
p3917
sI3918
S'employess'
p3918
sI3919
S'stress'
p3919
sI3920
S'structures'
p3920
sI3921
S'vis-a-vis'
p3921
sI3922
S'refuse'
p3922
sI3923
S'mitigate'
p3923
sI3924
S'start-up'
p3924
sI3925
S'slim'
p3925
sI3926
S'stimulate'
p3926
sI3927
S'mechanism'
p3927
sI3928
S'fisrt'
p3928
sI3929
S'irresponsible'
p3929
sI3930
S'slowing'
p3930
sI3931
S'analytical'
p3931
sI3932
S'climate'
p3932
sI3933
S'air'
p3933
sI3934
S'evidenced'
p3934
sI3935
S'evidance'
p3935
sI3936
S'unsure'
p3936
sI3937
S'dive'
p3937
sI3938
S'avoided'
p3938
sI3939
S'receiving'
p3939
sI3940
S'forgotten'
p3940
sI3941
S'compromised'
p3941
sI3942
S'stem'
p3942
sI3943
S'negatives'
p3943
sI3944
S'offsetting'
p3944
sI3945
S'catered'
p3945
sI3946
S'convencing'
p3946
sI3947
S'inappropriate'
p3947
sI3948
S'distinction'
p3948
sI3949
S'high-tech'
p3949
sI3950
S'reseach'
p3950
sI3951
S'shoes'
p3951
sI3952
S'corporations'
p3952
sI3953
S'lifetime'
p3953
sI3954
S'shuts'
p3954
sI3955
S'merchandise'
p3955
sI3956
S'superficial'
p3956
sI3957
S'thourough'
p3957
sI3958
S'regions'
p3958
sI3959
S'stregthened'
p3959
sI3960
S'defend'
p3960
sI3961
S'plain'
p3961
sI3962
S'insure'
p3962
sI3963
S'resolved'
p3963
sI3964
S'proceeds'
p3964
sI3965
S'lasting'
p3965
sI3966
S'tow'
p3966
sI3967
S'oriented'
p3967
sI3968
S'harming'
p3968
sI3969
S'arbitrary'
p3969
sI3970
S'younger'
p3970
sI3971
S'simplified'
p3971
sI3972
S'induce'
p3972
sI3973
S'plummet'
p3973
sI3974
S'unaddressed'
p3974
sI3975
S'riddled'
p3975
sI3976
S'characteristic'
p3976
sI3977
S'fators'
p3977
sI3978
S'maintaing'
p3978
sI3979
S'angle'
p3979
sI3980
S'harmed'
p3980
sI3981
S'desireable'
p3981
sI3982
S'differentiated'
p3982
sI3983
S'managerial'
p3983
sI3984
S'underlie'
p3984
sI3985
S'proportionally'
p3985
sI3986
S'beings'
p3986
sI3987
S'strongest'
p3987
sI3988
S'lays'
p3988
sI3989
S'realizing'
p3989
sI3990
S'spot'
p3990
sI3991
S'downsizing'
p3991
sI3992
S'nicer'
p3992
sI3993
S'monopoly'
p3993
sI3994
S'tv'
p3994
sI3995
S'thrive'
p3995
sI3996
S'opens'
p3996
sI3997
S'continuously'
p3997
sI3998
S'seemed'
p3998
sI3999
S'adjusted'
p3999
sI4000
S'flexible'
p4000
sI4001
S'stake'
p4001
sI4002
S'liability'
p4002
sI4003
S'thay'
p4003
sI4004
S'title'
p4004
sI4005
S'fortune'
p4005
sI4006
S'motivated'
p4006
sI4007
S'belong'
p4007
sI4008
S'specialty'
p4008
sI4009
S'nokia'
p4009
sI4010
S'persuaded'
p4010
sI4011
S'dynamic'
p4011
sI4012
S'sway'
p4012
sI4013
S'downside'
p4013
sI4014
S'track'
p4014
sI4015
S'flexibility'
p4015
sI4016
S'everybody'
p4016
sI4017
S'hefty'
p4017
sI4018
S'12'
p4018
sI4019
S'gathering'
p4019
sI4020
S'sites'
p4020
sI4021
S'judging'
p4021
sI4022
S'roughly'
p4022
sI4023
S'mor'
p4023
sI4024
S'specializing'
p4024
sI4025
S'oil'
p4025
sI4026
S'disregarded'
p4026
sI4027
S'satisfactory'
p4027
sI4028
S'facilitate'
p4028
sI4029
S'dictate'
p4029
sI4030
S'hot'
p4030
sI4031
S'inspite'
p4031
sI4032
S'infromation'
p4032
sI4033
S'naive'
p4033
sI4034
S'cheapest'
p4034
sI4035
S'promotions'
p4035
sI4036
S'contradict'
p4036
sI4037
S'informative'
p4037
sI4038
S'modified'
p4038
sI4039
S'ill-advised'
p4039
sI4040
S'copy'
p4040
sI4041
S'narrowing'
p4041
sI4042
S'briefly'
p4042
sI4043
S'chinese'
p4043
sI4044
S'attitudes'
p4044
sI4045
S'profitably'
p4045
sI4046
S'issued'
p4046
sI4047
S'showcase'
p4047
sI4048
S'articles'
p4048
sI4049
S'eveidence'
p4049
sI4050
S'audiences'
p4050
sI4051
S'meaningless'
p4051
sI4052
S'organized'
p4052
sI4053
S'methodology'
p4053
sI4054
S'diffrent'
p4054
sI4055
S'transferred'
p4055
sI4056
S'adapted'
p4056
sI4057
S'eventual'
p4057
sI4058
S'natural'
p4058
sI4059
S'downsides'
p4059
sI4060
S'exit'
p4060
sI4061
S'showrooms'
p4061
sI4062
S'upto'
p4062
sI4063
S'jeopardize'
p4063
sI4064
S'effecting'
p4064
sI4065
S'understands'
p4065
sI4066
S'failes'
p4066
sI4067
S'expend'
p4067
sI4068
S'delivering'
p4068
sI4069
S'frequency'
p4069
sI4070
S'reccomendation'
p4070
sI4071
S'steep'
p4071
sI4072
S'principal'
p4072
sI4073
S'passion'
p4073
sI4074
S'revise'
p4074
sI4075
S'diverting'
p4075
sI4076
S'damages'
p4076
sI4077
S'flawless'
p4077
sI4078
S'convenient'
p4078
sI4079
S'enjoyed'
p4079
sI4080
S'transformed'
p4080
sI4081
S'war'
p4081
sI4082
S'supplement'
p4082
sI4083
S'similiar'
p4083
sI4084
S'discovered'
p4084
sI4085
S'execution'
p4085
sI4086
S'exposed'
p4086
sI4087
S'derives'
p4087
sI4088
S'alongside'
p4088
sI4089
S'albeit'
p4089
sI4090
S'acheived'
p4090
sI4091
S'manufaturing'
p4091
sI4092
S'pulling'
p4092
sI4093
S'separating'
p4093
sI4094
S'lists'
p4094
sI4095
S'updating'
p4095
sI4096
S'intrinsic'
p4096
sI4097
S'objectively'
p4097
sI4098
S'signature'
p4098
sI4099
S'frist'
p4099
sI4100
S'retention'
p4100
sI4101
S'dip'
p4101
sI4102
S'visit'
p4102
sI4103
S'channel'
p4103
sI4104
S'reputable'
p4104
sI4105
S'disappointed'
p4105
sI4106
S'recall'
p4106
sI4107
S'buttress'
p4107
sI4108
S'profiting'
p4108
sI4109
S'initiatives'
p4109
sI4110
S'chart'
p4110
sI4111
S'please'
p4111
sI4112
S'upgraded'
p4112
sI4113
S'factoring'
p4113
sI4114
S'ambiguity'
p4114
sI4115
S'center'
p4115
sI4116
S'slight'
p4116
sI4117
S'leaders'
p4117
sI4118
S'diversifying'
p4118
sI4119
S'accommodate'
p4119
sI4120
S'software'
p4120
sI4121
S'irrespective'
p4121
sI4122
S'communication'
p4122
sI4123
S'threat'
p4123
sI4124
S'unmentioned'
p4124
sI4125
S'entirety'
p4125
sI4126
S'arthur'
p4126
sI4127
S'augment'
p4127
sI4128
S'rapid'
p4128
sI4129
S'benificial'
p4129
sI4130
S'garantee'
p4130
sI4131
S'definitly'
p4131
sI4132
S'traffic'
p4132
sI4133
S'trending'
p4133
sI4134
S'unused'
p4134
sI4135
S'collectively'
p4135
sI4136
S'deserves'
p4136
sI4137
S'insists'
p4137
sI4138
S'unknowns'
p4138
sI4139
S'dependant'
p4139
sI4140
S'exposure'
p4140
sI4141
S'math'
p4141
sI4142
S'ammount'
p4142
sI4143
S'generalizations'
p4143
sI4144
S'soar'
p4144
sI4145
S'diligence'
p4145
sI4146
S'whenever'
p4146
sI4147
S'inevitable'
p4147
sI4148
S'appreciated'
p4148
sI4149
S'america'
p4149
sI4150
S'forever'
p4150
sI4151
S'metric'
p4151
sI4152
S'embrace'
p4152
sI4153
S'happening'
p4153
sI4154
S'acutally'
p4154
sI4155
S'budgets'
p4155
sI4156
S'favored'
p4156
sI4157
S'mobile'
p4157
sI4158
S'phenomenon'
p4158
sI4159
S'grand'
p4159
sI4160
S'guarantees'
p4160
sI4161
S'excludes'
p4161
sI4162
S'comparsion'
p4162
sI4163
S'neccesary'
p4163
sI4164
S'revealed'
p4164
sI4165
S'japanese'
p4165
sI4166
S'root'
p4166
sI4167
S'disprove'
p4167
sI4168
S'commit'
p4168
sI4169
S'sould'
p4169
sI4170
S'quantifiable'
p4170
sI4171
S'patrons'
p4171
sI4172
S'reaserch'
p4172
sI4173
S'strikes'
p4173
sI4174
S'favourable'
p4174
sI4175
S'paint'
p4175
sI4176
S'myriad'
p4176
sI4177
S'century'
p4177
sI4178
S'differing'
p4178
sI4179
S'analysts'
p4179
sI4180
S'deficiencies'
p4180
sI4181
S'steadily'
p4181
sI4182
S'advancements'
p4182
sI4183
S'inverse'
p4183
sI4184
S'fullfill'
p4184
sI4185
S'handled'
p4185
sI4186
S'evaluations'
p4186
sI4187
S'convention'
p4187
sI4188
S'pro'
p4188
sI4189
S'presumed'
p4189
sI4190
S'challenging'
p4190
sI4191
S'accout'
p4191
sI4192
S'clarifying'
p4192
sI4193
S'reliant'
p4193
sI4194
S'modifications'
p4194
sI4195
S'searching'
p4195
sI4196
S'counteract'
p4196
sI4197
S'preferable'
p4197
sI4198
S'rewards'
p4198
sI4199
S'touched'
p4199
sI4200
S'ownership'
p4200
sI4201
S'posed'
p4201
sI4202
S'undermining'
p4202
sI4203
S'minute'
p4203
sI4204
S'convincingly'
p4204
sI4205
S'matches'
p4205
sI4206
S'revised'
p4206
sI4207
S'concentrated'
p4207
sI4208
S'dismissed'
p4208
sI4209
S'flimsy'
p4209
sI4210
S'forgetting'
p4210
sI4211
S'optimization'
p4211
sI4212
S'duplicate'
p4212
sI4213
S'stategy'
p4213
sI4214
S'temporarily'
p4214
sI4215
S'books'
p4215
sI4216
S'customs'
p4216
sI4217
S'observations'
p4217
sI4218
S'provid'
p4218
sI4219
S'strenthened'
p4219
sI4220
S'scrutinizing'
p4220
sI4221
S'dilemma'
p4221
sI4222
S'adresses'
p4222
sI4223
S'organizations'
p4223
sI4224
S'professionals'
p4224
sI4225
S'analyzes'
p4225
sI4226
S'suited'
p4226
sI4227
S'ressources'
p4227
sI4228
S'dominant'
p4228
sI4229
S'utmost'
p4229
sI4230
S'altough'
p4230
sI4231
S'accustomed'
p4231
sI4232
S'cell'
p4232
sI4233
S'majorly'
p4233
sI4234
S'behaviors'
p4234
sI4235
S'pointless'
p4235
sI4236
S'updated'
p4236
sI4237
S'recieved'
p4237
sI4238
S'm'
p4238
sI4239
S'judged'
p4239
sI4240
S'dismiss'
p4240
sI4241
S'necessarly'
p4241
sI4242
S'confuses'
p4242
sI4243
S'shaky'
p4243
sI4244
S'stability'
p4244
sI4245
S'conjunction'
p4245
sI4246
S'finishing'
p4246
sI4247
S'images'
p4247
sI4248
S'mixed'
p4248
sI4249
S'students'
p4249
sI4250
S'suits'
p4250
sI4251
S'reinforced'
p4251
sI4252
S'distributed'
p4252
sI4253
S'unhappy'
p4253
sI4254
S'upgrades'
p4254
sI4255
S'asserted'
p4255
sI4256
S'bankruptcy'
p4256
sI4257
S'capita'
p4257
sI4258
S'devoting'
p4258
sI4259
S'arising'
p4259
sI4260
S'cost-saving'
p4260
sI4261
S'complexity'
p4261
sI4262
S'roles'
p4262
sI4263
S'innovate'
p4263
sI4264
S'simplification'
p4264
sI4265
S'unwanted'
p4265
sI4266
S'discourage'
p4266
sI4267
S'questioning'
p4267
sI4268
S'inflation'
p4268
sI4269
S'reactions'
p4269
sI4270
S'capitalize'
p4270
sI4271
S'seperately'
p4271
sI4272
S'arrives'
p4272
sI4273
S'women'
p4273
sI4274
S'fraught'
p4274
sI4275
S'mantain'
p4275
sI4276
S'export'
p4276
sI4277
S'internally'
p4277
sI4278
S'preserve'
p4278
sI4279
S'launching'
p4279
sI4280
S'untapped'
p4280
sI4281
S'consultant'
p4281
sI4282
S'technically'
p4282
sI4283
S'rush'
p4283
sI4284
S'ad'
p4284
sI4285
S'necesarily'
p4285
sI4286
S'strenghthened'
p4286
sI4287
S'captured'
p4287
sI4288
S'preventing'
p4288
sI4289
S'advertisment'
p4289
sI4290
S'realizes'
p4290
sI4291
S'potencial'
p4291
sI4292
S'egregious'
p4292
sI4293
S'hardware'
p4293
sI4294
S'japan'
p4294
sI4295
S'yielded'
p4295
sI4296
S'graph'
p4296
sI4297
S'marginally'
p4297
sI4298
S'opened'
p4298
sI4299
S'attractiveness'
p4299
sI4300
S'sport'
p4300
sI4301
S'agreeing'
p4301
sI4302
S'conducts'
p4302
sI4303
S'intervention'
p4303
sI4304
S'develops'
p4304
sI4305
S'wonderful'
p4305
sI4306
S'grant'
p4306
sI4307
S'inital'
p4307
sI4308
S'.so'
p4308
sI4309
S'ill-defined'
p4309
sI4310
S'functional'
p4310
sI4311
S'keen'
p4311
sI4312
S'overwhelming'
p4312
sI4313
S'tactic'
p4313
sI4314
S'belives'
p4314
sI4315
S'quantified'
p4315
sI4316
S'fate'
p4316
sI4317
S'competiton'
p4317
sI4318
S'todays'
p4318
sI4319
S'active'
p4319
sI4320
S'unemployed'
p4320
sI4321
S'grade'
p4321
sI4322
S'asumption'
p4322
sI4323
S'reevaluate'
p4323
sI4324
S'cosumers'
p4324
sI4325
S'ill-conceived'
p4325
sI4326
S'capturing'
p4326
sI4327
S'distributors'
p4327
sI4328
S'passionate'
p4328
sI4329
S'matching'
p4329
sI4330
S'references'
p4330
sI4331
S'specializes'
p4331
sI4332
S'late'
p4332
sI4333
S'successfull'
p4333
sI4334
S'exercise'
p4334
sI4335
S'winning'
p4335
sI4336
S'wholly'
p4336
sI4337
S'posits'
p4337
sI4338
S'metioned'
p4338
sI4339
S'beat'
p4339
sI4340
S'national'
p4340
sI4341
S'angles'
p4341
sI4342
S'begining'
p4342
sI4343
S'reasoing'
p4343
sI4344
S'elastic'
p4344
sI4345
S'propsed'
p4345
sI4346
S'acknowledged'
p4346
sI4347
S'explicate'
p4347
sI4348
S'adapting'
p4348
sI4349
S'beside'
p4349
sI4350
S'argment'
p4350
sI4351
S'advances'
p4351
sI4352
S'sometime'
p4352
sI4353
S'evdience'
p4353
sI4354
S'disscussed'
p4354
sI4355
S'color'
p4355
sI4356
S'provider'
p4356
sI4357
S'fundamentals'
p4357
sI4358
S'grasp'
p4358
sI4359
S'shareholder'
p4359
sI4360
S'declines'
p4360
sI4361
S'mainstream'
p4361
sI4362
S'shell'
p4362
sI4363
S'loan'
p4363
sI4364
S'reported'
p4364
sI4365
S'admirable'
p4365
sI4366
S'envidence'
p4366
sI4367
S'finacial'
p4367
sI4368
S'mouth'
p4368
sI4369
S'wondering'
p4369
sI4370
S'illogically'
p4370
sI4371
S'nation'
p4371
sI4372
S'prospect'
p4372
sI4373
S'boosted'
p4373
sI4374
S'returned'
p4374
sI4375
S'corelation'
p4375
sI4376
S'pitfalls'
p4376
sI4377
S'retained'
p4377
sI4378
S'consult'
p4378
sI4379
S'worthless'
p4379
sI4380
S'integral'
p4380
sI4381
S'promotional'
p4381
sI4382
S'placement'
p4382
sI4383
S'beleive'
p4383
sI4384
S'weakend'
p4384
sI4385
S'illustration'
p4385
sI4386
S'withstand'
p4386
sI4387
S'silent'
p4387
sI4388
S'television'
p4388
sI4389
S'well-rounded'
p4389
sI4390
S'documentation'
p4390
sI4391
S'7'
p4391
sI4392
S'approved'
p4392
sI4393
S'excluding'
p4393
sI4394
S'simpler'
p4394
sI4395
S'visibility'
p4395
sI4396
S'attack'
p4396
sI4397
S'payments'
p4397
sI4398
S'misunderstanding'
p4398
sI4399
S'fields'
p4399
sI4400
S'grown'
p4400
sI4401
S'character'
p4401
sI4402
S'utilities'
p4402
sI4403
S'manages'
p4403
sI4404
S'abundant'
p4404
sI4405
S'abundance'
p4405
sI4406
S'sustainability'
p4406
sI4407
S'label'
p4407
sI4408
S'legitimacy'
p4408
sI4409
S'comprehend'
p4409
sI4410
S'casts'
p4410
sI4411
S'rounded'
p4411
sI4412
S'fist'
p4412
sI4413
S'lease'
p4413
sI4414
S'favorably'
p4414
sI4415
S'gas'
p4415
sI4416
S'fun'
p4416
sI4417
S'propotion'
p4417
sI4418
S'indepth'
p4418
sI4419
S'proportions'
p4419
sI4420
S'cause-effect'
p4420
sI4421
S'procure'
p4421
sI4422
S'encounter'
p4422
sI4423
S'integrated'
p4423
sI4424
S'writers'
p4424
sI4425
S'centered'
p4425
sI4426
S'traditionally'
p4426
sI4427
S'continually'
p4427
sI4428
S'limitation'
p4428
sI4429
S'tie'
p4429
sI4430
S'cool'
p4430
sI4431
S'illustrating'
p4431
sI4432
S'vaild'
p4432
sI4433
S'quiet'
p4433
sI4434
S'poll'
p4434
sI4435
S'disrupt'
p4435
sI4436
S'skeptical'
p4436
sI4437
S'mentionned'
p4437
sI4438
S'arguably'
p4438
sI4439
S'determinant'
p4439
sI4440
S'existance'
p4440
sI4441
S'.if'
p4441
sI4442
S'vain'
p4442
sI4443
S'trusted'
p4443
sI4444
S'150'
p4444
sI4445
S'altered'
p4445
sI4446
S'persuative'
p4446
sI4447
S'implements'
p4447
sI4448
S'appreciation'
p4448
sI4449
S'shortsighted'
p4449
sI4450
S'tailored'
p4450
sI4451
S'sucessful'
p4451
sI4452
S'deduced'
p4452
sI4453
S'residents'
p4453
sI4454
S'swith'
p4454
sI4455
S'bearing'
p4455
sI4456
S'cutomer'
p4456
sI4457
S'consisting'
p4457
sI4458
S'security'
p4458
sI4459
S'comprised'
p4459
sI4460
S'builders'
p4460
sI4461
S'overseas'
p4461
sI4462
S'thoughtful'
p4462
sI4463
S'threaten'
p4463
sI4464
S'conflict'
p4464
sI4465
S'regulations'
p4465
sI4466
S'evidents'
p4466
sI4467
S'arrangement'
p4467
sI4468
S'beleives'
p4468
sI4469
S'drew'
p4469
sI4470
S'aligned'
p4470
sI4471
S'ethical'
p4471
sI4472
S'trigger'
p4472
sI4473
S'personally'
p4473
sI4474
S'unpopular'
p4474
sI4475
S'programs'
p4475
sI4476
S'rulling'
p4476
sI4477
S'editor'
p4477
sI4478
S'dominate'
p4478
sI4479
S'conspicuous'
p4479
sI4480
S'seat'
p4480
sI4481
S'supposes'
p4481
sI4482
S'administrative'
p4482
sI4483
S'retailer'
p4483
sI4484
S'talent'
p4484
sI4485
S'varied'
p4485
sI4486
S'reasonning'
p4486
sI4487
S'promoted'
p4487
sI4488
S'portray'
p4488
sI4489
S'tackle'
p4489
sI4490
S'minutes'
p4490
sI4491
S'noting'
p4491
sI4492
S'acknowledges'
p4492
sI4493
S'confirming'
p4493
sI4494
S'rides'
p4494
sI4495
S'considerate'
p4495
sI4496
S'visible'
p4496
sI4497
S're-evaluate'
p4497
sI4498
S'logistical'
p4498
sI4499
S'representation'
p4499
sI4500
S'competetion'
p4500
sI4501
S'oppurtunity'
p4501
sI4502
S'senior'
p4502
sI4503
S'conspicously'
p4503
sI4504
S'shops'
p4504
sI4505
S'bussiness'
p4505
sI4506
S'competitve'
p4506
sI4507
S'directions'
p4507
sI4508
S'sticking'
p4508
sI4509
S'presenter'
p4509
sI4510
S'cost-cutting'
p4510
sI4511
S'electric'
p4511
sI4512
S'competetors'
p4512
sI4513
S'entice'
p4513
sI4514
S'completing'
p4514
sI4515
S'plethora'
p4515
sI4516
S'fulfilling'
p4516
sI4517
S'backs'
p4517
sI4518
S'walk'
p4518
sI4519
S'adoption'
p4519
sI4520
S'entirly'
p4520
sI4521
S'negated'
p4521
sI4522
S'household'
p4522
sI4523
S'assupmtion'
p4523
sI4524
S'enviroment'
p4524
sI4525
S'played'
p4525
sI4526
S'devices'
p4526
sI4527
S'troubles'
p4527
sI4528
S'ridiculous'
p4528
sI4529
S'conving'
p4529
sI4530
S'causual'
p4530
sI4531
S'unrealistic'
p4531
sI4532
S'recognizing'
p4532
sI4533
S'reward'
p4533
sI4534
S'kill'
p4534
sI4535
S'sizeable'
p4535
sI4536
S'relevance'
p4536
sI4537
S'exmaple'
p4537
sI4538
S'bu'
p4538
sI4539
S'turnaround'
p4539
sI4540
S'hindering'
p4540
sI4541
S'>'
p4541
sI4542
S'optimistic'
p4542
sI4543
S'debatable'
p4543
sI4544
S'commitment'
p4544
sI4545
S'vein'
p4545
sI4546
S'theories'
p4546
sI4547
S'competive'
p4547
sI4548
S'asumptions'
p4548
sI4549
S'rejected'
p4549
sI4550
S'grave'
p4550
sI4551
S'personality'
p4551
sI4552
S'de'
p4552
sI4553
S'handful'
p4553
sI4554
S'cow'
p4554
sI4555
S'glace'
p4555
sI4556
S'property'
p4556
sI4557
S'premier'
p4557
sI4558
S'online'
p4558
sI4559
S'benefitial'
p4559
sI4560
S'countless'
p4560
sI4561
S'bias'
p4561
sI4562
S'figuring'
p4562
sI4563
S'know-how'
p4563
sI4564
S'referring'
p4564
sI4565
S'opting'
p4565
sI4566
S'divison'
p4566
sI4567
S'broke'
p4567
sI4568
S'disclosed'
p4568
sI4569
S'liked'
p4569
sI4570
S'temporary'
p4570
sI4571
S'quarters'
p4571
sI4572
S'wiser'
p4572
sI4573
S'doesn'
p4573
sI4574
S'application'
p4574
sI4575
S'independently'
p4575
sI4576
S'e'
p4576
sI4577
S'friendly'
p4577
sI4578
S'personel'
p4578
sI4579
S'approval'
p4579
sI4580
S'posible'
p4580
sI4581
S'lends'
p4581
sI4582
S'upward'
p4582
sI4583
S'super'
p4583
sI4584
S'magazine'
p4584
sI4585
S'premiums'
p4585
sI4586
S'excellence'
p4586
sI4587
S'relys'
p4587
sI4588
S'continuous'
p4588
sI4589
S'additonally'
p4589
sI4590
S'hybrid'
p4590
sI4591
S'funding'
p4591
sI4592
S'acting'
p4592
sI4593
S'geared'
p4593
sI4594
S'gotten'
p4594
sI4595
S'wherein'
p4595
sI4596
S'ourselves'
p4596
sI4597
S'hight'
p4597
sI4598
S'costomer'
p4598
sI4599
S'analytics'
p4599
sI4600
S'mid'
p4600
sI4601
S'routine'
p4601
sI4602
S'predicated'
p4602
sI4603
S'drawback'
p4603
sI4604
S'differnt'
p4604
sI4605
S'peers'
p4605
sI4606
S'insufficent'
p4606
sI4607
S'convice'
p4607
sI4608
S'attempted'
p4608
sI4609
S'emphasizes'
p4609
sI4610
S'ans'
p4610
sI4611
S'od'
p4611
sI4612
S'isnt'
p4612
sI4613
S'avenue'
p4613
sI4614
S'susceptible'
p4614
sI4615
S'passed'
p4615
sI4616
S'achieves'
p4616
sI4617
S'evaluates'
p4617
sI4618
S'targetting'
p4618
sI4619
S'advocate'
p4619
sI4620
S'cautious'
p4620
sI4621
S'fluctuate'
p4621
sI4622
S'abovementioned'
p4622
sI4623
S'benefical'
p4623
sI4624
S'stockholders'
p4624
sI4625
S'summation'
p4625
sI4626
S'assuptions'
p4626
sI4627
S'strategically'
p4627
sI4628
S'tap'
p4628
sI4629
S'startup'
p4629
sI4630
S'longevity'
p4630
sI4631
S'projecting'
p4631
sI4632
S'geographical'
p4632
sI4633
S'conceived'
p4633
sI4634
S'reflecting'
p4634
sI4635
S'expands'
p4635
sI4636
S'sustaining'
p4636
sI4637
S'designing'
p4637
sI4638
S'caution'
p4638
sI4639
S'bewteen'
p4639
sI4640
S'collapse'
p4640
sI4641
S'object'
p4641
sI4642
S'upscale'
p4642
sI4643
S'konw'
p4643
sI4644
S'recomendation'
p4644
sI4645
S'scientific'
p4645
sI4646
S'package'
p4646
sI4647
S'tight'
p4647
sI4648
S'resouces'
p4648
sI4649
S'affordability'
p4649
sI4650
S'invesment'
p4650
sI4651
S'facets'
p4651
sI4652
S'surveying'
p4652
sI4653
S'reallocating'
p4653
sI4654
S'demerits'
p4654
sI4655
S'engage'
p4655
sI4656
S'mitigated'
p4656
sI4657
S'checking'
p4657
sI4658
S'replicate'
p4658
sI4659
S'unrest'
p4659
sI4660
S'toll'
p4660
sI4661
S'separated'
p4661
sI4662
S'equiptment'
p4662
sI4663
S'assigned'
p4663
sI4664
S'afloat'
p4664
sI4665
S'requests'
p4665
sI4666
S'quoted'
p4666
sI4667
S'welcome'
p4667
sI4668
S'exclude'
p4668
sI4669
S'forms'
p4669
sI4670
S'blind'
p4670
sI4671
S'recruit'
p4671
sI4672
S'alleviate'
p4672
sI4673
S'outsource'
p4673
sI4674
S'imporant'
p4674
sI4675
S'firmly'
p4675
sI4676
S'resons'
p4676
sI4677
S'unreasonably'
p4677
sI4678
S'baseline'
p4678
sI4679
S'overweight'
p4679
sI4680
S'dissimilarity'
p4680
sI4681
S'announced'
p4681
sI4682
S'speciality'
p4682
sI4683
S'employer'
p4683
sI4684
S'stats'
p4684
sI4685
S'commen'
p4685
sI4686
S'prominent'
p4686
sI4687
S'crutial'
p4687
sI4688
S'education'
p4688
sI4689
S'samsung'
p4689
sI4690
S'integrity'
p4690
sI4691
S'extract'
p4691
sI4692
S'restricted'
p4692
sI4693
S'throught'
p4693
sI4694
S'predicting'
p4694
sI4695
S'analyst'
p4695
sI4696
S'fell'
p4696
sI4697
S'avoiding'
p4697
sI4698
S'affact'
p4698
sI4699
S'black'
p4699
sI4700
S'decisive'
p4700
sI4701
S'enjoying'
p4701
sI4702
S'published'
p4702
sI4703
S'necesary'
p4703
sI4704
S'organizational'
p4704
sI4705
S'replicated'
p4705
sI4706
S'.however'
p4706
sI4707
S'discretionary'
p4707
sI4708
S'absurd'
p4708
sI4709
S'promotes'
p4709
sI4710
S'domestic'
p4710
sI4711
S'capacities'
p4711
sI4712
S'subtantiate'
p4712
sI4713
S'afterall'
p4713
sI4714
S'variation'
p4714
sI4715
S'bridge'
p4715
sI4716
S'merging'
p4716
sI4717
S'characters'
p4717
sI4718
S'impose'
p4718
sI4719
S'connections'
p4719
sI4720
S'advocating'
p4720
sI4721
S'veracity'
p4721
sI4722
S'calling'
p4722
sI4723
S'deserve'
p4723
sI4724
S'imported'
p4724
sI4725
S'serviced'
p4725
sI4726
S'disposal'
p4726
sI4727
S'occuring'
p4727
sI4728
S'posibility'
p4728
sI4729
S'divert'
p4729
sI4730
S'platform'
p4730
sI4731
S'realised'
p4731
sI4732
S'book'
p4732
sI4733
S'warrants'
p4733
sI4734
S'furture'
p4734
sI4735
S'tactics'
p4735
sI4736
S'yourself'
p4736
sI4737
S'substantiation'
p4737
sI4738
S'release'
p4738
sI4739
S'angry'
p4739
sI4740
S'orginal'
p4740
sI4741
S'impactful'
p4741
sI4742
S'instantly'
p4742
sI4743
S'vote'
p4743
sI4744
S'worried'
p4744
sI4745
S'workplace'
p4745
sI4746
S'polls'
p4746
sI4747
S'engaged'
p4747
sI4748
S'parties'
p4748
sI4749
S'measurement'
p4749
sI4750
S'disregarding'
p4750
sI4751
S'influential'
p4751
sI4752
S'walmart'
p4752
sI4753
S'sided'
p4753
sI4754
S'migh'
p4754
sI4755
S'indian'
p4755
sI4756
S'defeat'
p4756
sI4757
S'commodities'
p4757
sI4758
S'preferring'
p4758
sI4759
S'co'
p4759
sI4760
S'concusion'
p4760
sI4761
S'asks'
p4761
sI4762
S'roads'
p4762
sI4763
S'usefull'
p4763
sI4764
S'consolidated'
p4764
sI4765
S'rigorous'
p4765
sI4766
S'motivate'
p4766
sI4767
S'mechanic'
p4767
sI4768
S'discussions'
p4768
sI4769
S'demonstration'
p4769
sI4770
S'horizon'
p4770
sI4771
S'qulity'
p4771
sI4772
S'eg'
p4772
sI4773
S'friend'
p4773
sI4774
S'enabling'
p4774
sI4775
S'invalidate'
p4775
sI4776
S'celebrities'
p4776
sI4777
S'likey'
p4777
sI4778
S'exert'
p4778
sI4779
S'techonology'
p4779
sI4780
S'bears'
p4780
sI4781
S'submitted'
p4781
sI4782
S'admit'
p4782
sI4783
S'obstacles'
p4783
sI4784
S'definitive'
p4784
sI4785
S'argurment'
p4785
sI4786
S'subjective'
p4786
sI4787
S'strengthens'
p4787
sI4788
S'favors'
p4788
sI4789
S'ignorance'
p4789
sI4790
S'investigations'
p4790
sI4791
S'scarce'
p4791
sI4792
S'eating'
p4792
sI4793
S'workload'
p4793
sI4794
S'children'
p4794
sI4795
S'recommandation'
p4795
sI4796
S'foreign'
p4796
sI4797
S'ensured'
p4797
sI4798
S'rebrand'
p4798
sI4799
S'keys'
p4799
sI4800
S'predominantly'
p4800
sI4801
S'deliberately'
p4801
sI4802
S'staple'
p4802
sI4803
S'teams'
p4803
sI4804
S'discard'
p4804
sI4805
S'authur'
p4805
sI4806
S'selected'
p4806
sI4807
S'revolves'
p4807
sI4808
S'exhibits'
p4808
sI4809
S'destroyed'
p4809
sI4810
S'comments'
p4810
sI4811
S'impressive'
p4811
sI4812
S'succeeded'
p4812
sI4813
S'duty'
p4813
sI4814
S'afterwards'
p4814
sI4815
S'erroneously'
p4815
sI4816
S'persons'
p4816
sI4817
S'communicate'
p4817
sI4818
S'imporve'
p4818
sI4819
S'strict'
p4819
sI4820
S'resort'
p4820
sI4821
S'lag'
p4821
sI4822
S'threats'
p4822
sI4823
S'argement'
p4823
sI4824
S'credence'
p4824
sI4825
S'peoples'
p4825
sI4826
S'associates'
p4826
sI4827
S'afraid'
p4827
sI4828
S'invests'
p4828
sI4829
S'validating'
p4829
sI4830
S'reconsidered'
p4830
sI4831
S'coustomers'
p4831
sI4832
S'agruement'
p4832
sI4833
S's/he'
p4833
sI4834
S're'
p4834
sI4835
S'tech'
p4835
sI4836
S'advertisments'
p4836
sI4837
S'.it'
p4837
sI4838
S'companie'
p4838
sI4839
S'approving'
p4839
sI4840
S'virtue'
p4840
sI4841
S'shoppers'
p4841
sI4842
S'inconsistent'
p4842
sI4843
S'borrow'
p4843
sI4844
S'underline'
p4844
sI4845
S'constitue'
p4845
sI4846
S'dimensions'
p4846
sI4847
S'accumulated'
p4847
sI4848
S'1,500'
p4848
sI4849
S'generalized'
p4849
sI4850
S'viewing'
p4850
sI4851
S'globally'
p4851
sI4852
S'dislike'
p4852
sI4853
S'carelessly'
p4853
sI4854
S'race'
p4854
sI4855
S'discounting'
p4855
sI4856
S'merge'
p4856
sI4857
S'collecting'
p4857
sI4858
S'suppot'
p4858
sI4859
S'suppor'
p4859
sI4860
S'renowned'
p4860
sI4861
S'pursuit'
p4861
sI4862
S'balancing'
p4862
sI4863
S'bread'
p4863
sI4864
S'backgrounds'
p4864
sI4865
S'stead'
p4865
sI4866
S'checks'
p4866
sI4867
S'launched'
p4867
sI4868
S'enticing'
p4868
sI4869
S'assistance'
p4869
sI4870
S'displayed'
p4870
sI4871
S'accordance'
p4871
sI4872
S'choise'
p4872
sI4873
S'default'
p4873
sI4874
S'postive'
p4874
sI4875
S'enhancement'
p4875
sI4876
S'solving'
p4876
sI4877
S'swot'
p4877
sI4878
S'empty'
p4878
sI4879
S'fleet'
p4879
sI4880
S'guide'
p4880
sI4881
S'info'
p4881
sI4882
S'emplyees'
p4882
sI4883
S'manipulate'
p4883
sI4884
S'technologically'
p4884
sI4885
S'prevailing'
p4885
sI4886
S'globe'
p4886
sI4887
S'treat'
p4887
sI4888
S'party'
p4888
sI4889
S'freedom'
p4889
sI4890
S'counts'
p4890
sI4891
S'linear'
p4891
sI4892
S'thereof'
p4892
sI4893
S'sorts'
p4893
sI4894
S'ii'
p4894
sI4895
S'grows'
p4895
sI4896
S'outselling'
p4896
sI4897
S'stages'
p4897
sI4898
S'staying'
p4898
sI4899
S'entity'
p4899
sI4900
S'thank'
p4900
sI4901
S'mechanisms'
p4901
sI4902
S'ommits'
p4902
sI4903
S'occupied'
p4903
sI4904
S'sheets'
p4904
sI4905
S'profiles'
p4905
sI4906
S'cancelled'
p4906
sI4907
S'notable'
p4907
sI4908
S'deem'
p4908
sI4909
S'hugely'
p4909
sI4910
S'stratergy'
p4910
sI4911
S'controlling'
p4911
sI4912
S'proficient'
p4912
sI4913
S'pollution'
p4913
sI4914
S'exploration'
p4914
sI4915
S'depression'
p4915
sI4916
S'loved'
p4916
sI4917
S'passing'
p4917
sI4918
S'ads'
p4918
sI4919
S'soft'
p4919
sI4920
S'worsen'
p4920
sI4921
S'join'
p4921
sI4922
S'strenght'
p4922
sI4923
S'coach'
p4923
sI4924
S'wal-mart'
p4924
sI4925
S'fetched'
p4925
sI4926
S'array'
p4926
sI4927
S'tailor'
p4927
sI4928
S'insist'
p4928
sI4929
S'discrepancy'
p4929
sI4930
S'attributing'
p4930
sI4931
S'requested'
p4931
sI4932
S'supervision'
p4932
sI4933
S'teach'
p4933
sI4934
S'political'
p4934
sI4935
S'confirms'
p4935
sI4936
S'analize'
p4936
sI4937
S'exemple'
p4937
sI4938
S'develope'
p4938
sI4939
S'stragety'
p4939
sI4940
S'dicussed'
p4940
sI4941
S'unpredictable'
p4941
sI4942
S'conversation'
p4942
sI4943
S'student'
p4943
sI4944
S'theses'
p4944
sI4945
S'presume'
p4945
sI4946
S'locate'
p4946
sI4947
S'sick'
p4947
sI4948
S'99'
p4948
sI4949
S'master'
p4949
sI4950
S'endure'
p4950
sI4951
S'roll'
p4951
sI4952
S'parameter'
p4952
sI4953
S'unfavorable'
p4953
sI4954
S'smarter'
p4954
sI4955
S'undesirable'
p4955
sI4956
S'liquidity'
p4956
sI4957
S'futile'
p4957
sI4958
S'reson'
p4958
sI4959
S'one-sided'
p4959
sI4960
S'focussed'
p4960
sI4961
S'it`s'
p4961
sI4962
S'infered'
p4962
sI4963
S'load'
p4963
sI4964
S'custmers'
p4964
sI4965
S'outsourced'
p4965
sI4966
S'singular'
p4966
sI4967
S'competency'
p4967
sI4968
S'documents'
p4968
sI4969
S'competence'
p4969
sI4970
S'so-called'
p4970
sI4971
S'revamp'
p4971
sI4972
S'accident'
p4972
sI4973
S'foreseeable'
p4973
sI4974
S'airline'
p4974
sI4975
S'network'
p4975
sI4976
S'electronic'
p4976
sI4977
S'intrested'
p4977
sI4978
S'duties'
p4978
sI4979
S'fight'
p4979
sI4980
S'fragile'
p4980
sI4981
S'hte'
p4981
sI4982
S'revolution'
p4982
sI4983
S'clue'
p4983
sI4984
S'cap'
p4984
sI4985
S'document'
p4985
sI4986
S'anecdotal'
p4986
sI4987
S'foot'
p4987
sI4988
S'death'
p4988
sI4989
S'disbanding'
p4989
sI4990
S'attributable'
p4990
sI4991
S'learned'
p4991
sI4992
S'diferent'
p4992
sI4993
S'barrier'
p4993
sI4994
S'headed'
p4994
sI4995
S'retirement'
p4995
sI4996
S'informaiton'
p4996
sI4997
S'reallocate'
p4997
sI4998
S'writter'
p4998
sI4999
S'guranteed'
p4999
sI5000
S'sizes'
p5000
sI5001
S'liking'
p5001
sI5002
S'interpret'
p5002
sI5003
S'amazing'
p5003
sI5004
S'stocking'
p5004
sI5005
S'reserach'
p5005
sI5006
S'dead'
p5006
sI5007
S'billion'
p5007
sI5008
S'round'
p5008
sI5009
S'box'
p5009
sI5010
S'americans'
p5010
sI5011
S'complaints'
p5011
sI5012
S'rating'
p5012
sI5013
S'purchaser'
p5013
sI5014
S'contradicts'
p5014
sI5015
S'conclussion'
p5015
sI5016
S'acts'
p5016
sI5017
S'treated'
p5017
sI5018
S'creativity'
p5018
sI5019
S'integration'
p5019
sI5020
S'connecting'
p5020
sI5021
S'cohesive'
p5021
sI5022
S'correspond'
p5022
sI5023
S'barriers'
p5023
sI5024
S'realistically'
p5024
sI5025
S'copied'
p5025
sI5026
S'evaulate'
p5026
sI5027
S'administration'
p5027
sI5028
S'tests'
p5028
sI5029
S'accessible'
p5029
sI5030
S'resourses'
p5030
sI5031
S'blue'
p5031
sI5032
S'interpretation'
p5032
sI5033
S'confuse'
p5033
sI5034
S'filling'
p5034
sI5035
S'aquire'
p5035
sI5036
S'strech'
p5036
sI5037
S'authenticity'
p5037
sI5038
S'origin'
p5038
sI5039
S'.for'
p5039
sI5040
S'specialised'
p5040
sI5041
S'contributors'
p5041
sI5042
S'donot'
p5042
sI5043
S'seasons'
p5043
sI5044
S'starters'
p5044
sI5045
S'externalities'
p5045
sI5046
S'oversee'
p5046
sI5047
S'improper'
p5047
sI5048
S'competencies'
p5048
sI5049
S'hourly'
p5049
sI5050
S'well-founded'
p5050
sI5051
S'boosts'
p5051
sI5052
S'investor'
p5052
sI5053
S'agrees'
p5053
sI5054
S'identification'
p5054
sI5055
S'enlarging'
p5055
sI5056
S'redesign'
p5056
sI5057
S'persuasiveness'
p5057
sI5058
S'wind'
p5058
sI5059
S'ups'
p5059
sI5060
S'shipped'
p5060
sI5061
S'tires'
p5061
sI5062
S'forefront'
p5062
sI5063
S'behalf'
p5063
sI5064
S'varieties'
p5064
sI5065
S'representing'
p5065
sI5066
S'jumped'
p5066
sI5067
S'locally'
p5067
sI5068
S'concede'
p5068
sI5069
S'casue'
p5069
sI5070
S'exhausted'
p5070
sI5071
S'shortages'
p5071
sI5072
S'situated'
p5072
sI5073
S'bacause'
p5073
sI5074
S'passages'
p5074
sI5075
S'recruiting'
p5075
sI5076
S'beforehand'
p5076
sI5077
S'un'
p5077
sI5078
S'customes'
p5078
sI5079
S'adopts'
p5079
sI5080
S'accompany'
p5080
sI5081
S'determinants'
p5081
sI5082
S'correlations'
p5082
sI5083
S'newest'
p5083
sI5084
S'rightly'
p5084
sI5085
S'separates'
p5085
sI5086
S'striving'
p5086
sI5087
S'era'
p5087
sI5088
S'recreational'
p5088
sI5089
S'thet'
p5089
sI5090
S'marketting'
p5090
sI5091
S'unwilling'
p5091
sI5092
S'battle'
p5092
sI5093
S'didnot'
p5093
sI5094
S'technolgy'
p5094
sI5095
S'tomorrow'
p5095
sI5096
S'uniquely'
p5096
sI5097
S'influnce'
p5097
sI5098
S'convining'
p5098
sI5099
S'dire'
p5099
sI5100
S'reserch'
p5100
sI5101
S'throwing'
p5101
sI5102
S'statistically'
p5102
sI5103
S'consistency'
p5103
sI5104
S'competitions'
p5104
sI5105
S'foresee'
p5105
sI5106
S'thriving'
p5106
sI5107
S'intelligence'
p5107
sI5108
S'troubling'
p5108
sI5109
S'emerging'
p5109
sI5110
S'employes'
p5110
sI5111
S'grab'
p5111
sI5112
S'differs'
p5112
sI5113
S'releasing'
p5113
sI5114
S'intelligent'
p5114
sI5115
S'transaction'
p5115
sI5116
S'historic'
p5116
sI5117
S'heading'
p5117
sI5118
S'expose'
p5118
sI5119
S'untill'
p5119
sI5120
S'president'
p5120
sI5121
S'contend'
p5121
sI5122
S'mini'
p5122
sI5123
S'supervisors'
p5123
sI5124
S'definetely'
p5124
sI5125
S'marking'
p5125
sI5126
S'advises'
p5126
sI5127
S'increasement'
p5127
sI5128
S'listing'
p5128
sI5129
S'othe'
p5129
sI5130
S'reluctant'
p5130
sI5131
S'pleasure'
p5131
sI5132
S'suffient'
p5132
sI5133
S'sums'
p5133
sI5134
S'hoped'
p5134
sI5135
S'whcih'
p5135
sI5136
S'arrange'
p5136
sI5137
S'comapnies'
p5137
sI5138
S'leveraging'
p5138
sI5139
S'mandate'
p5139
sI5140
S'controls'
p5140
sI5141
S'word-of-mouth'
p5141
sI5142
S'commited'
p5142
sI5143
S'flip'
p5143
sI5144
S'feelings'
p5144
sI5145
S'mr'
p5145
sI5146
S'coin'
p5146
sI5147
S'him/her'
p5147
sI5148
S'bargain'
p5148
sI5149
S'displaying'
p5149
sI5150
S'oftentimes'
p5150
sI5151
S'pleased'
p5151
sI5152
S'conclusion.the'
p5152
sI5153
S'urge'
p5153
sI5154
S'announcement'
p5154
sI5155
S'fallcy'
p5155
sI5156
S'synergy'
p5156
sI5157
S'coincides'
p5157
sI5158
S'unlimited'
p5158
sI5159
S'uphold'
p5159
sI5160
S'apt'
p5160
sI5161
S'counterargument'
p5161
sI5162
S'estimating'
p5162
sI5163
S'profound'
p5163
sI5164
S'agreements'
p5164
sI5165
S'cross'
p5165
sI5166
S'goverment'
p5166
sI5167
S'certian'
p5167
sI5168
S'postion'
p5168
sI5169
S'divide'
p5169
sI5170
S'connects'
p5170
sI5171
S'engineer'
p5171
sI5172
S'listen'
p5172
sI5173
S'doors'
p5173
sI5174
S'anology'
p5174
sI5175
S'consultants'
p5175
sI5176
S'foothold'
p5176
sI5177
S'proud'
p5177
sI5178
S'overarching'
p5178
sI5179
S'submit'
p5179
sI5180
S'far-reaching'
p5180
sI5181
S'aggressive'
p5181
sI5182
S'representatives'
p5182
sI5183
S'relavent'
p5183
sI5184
S'unsubstantial'
p5184
sI5185
S'shortcoming'
p5185
sI5186
S'broaden'
p5186
sI5187
S'integrate'
p5187
sI5188
S'refering'
p5188
sI5189
S'h'
p5189
sI5190
S'specious'
p5190
sI5191
S'suport'
p5191
sI5192
S'rectify'
p5192
sI5193
S'achievable'
p5193
sI5194
S'becouse'
p5194
sI5195
S'recovery'
p5195
sI5196
S'gamble'
p5196
sI5197
S'bank'
p5197
sI5198
S'evolve'
p5198
sI5199
S'oppose'
p5199
sI5200
S'subjects'
p5200
sI5201
S'preceeding'
p5201
sI5202
S'thr'
p5202
sI5203
S'sends'
p5203
sI5204
S'posses'
p5204
sI5205
S'theirs'
p5205
sI5206
S'palce'
p5206
sI5207
S'resides'
p5207
sI5208
S'exposes'
p5208
sI5209
S'operator'
p5209
sI5210
S'throughly'
p5210
sI5211
S'coverage'
p5211
sI5212
S'exceptionally'
p5212
sI5213
S'anytime'
p5213
sI5214
S'quote'
p5214
sI5215
S'completion'
p5215
sI5216
S'possibilites'
p5216
sI5217
S'etc..'
p5217
sI5218
S'poorer'
p5218
sI5219
S'ratings'
p5219
sI5220
S'underlies'
p5220
sI5221
S'alive'
p5221
sI5222
S'accross'
p5222
sI5223
S'documented'
p5223
sI5224
S'lightly'
p5224
sI5225
S'mileage'
p5225
sI5226
S'demise'
p5226
sI5227
S'trucks'
p5227
sI5228
S'becuse'
p5228
sI5229
S'advertised'
p5229
sI5230
S'convenience'
p5230
sI5231
S'dissimilarities'
p5231
sI5232
S'disruption'
p5232
sI5233
S'deems'
p5233
sI5234
S'economists'
p5234
sI5235
S'requisite'
p5235
sI5236
S'commission'
p5236
sI5237
S'entered'
p5237
sI5238
S'affirm'
p5238
sI5239
S'sooner'
p5239
sI5240
S'personalized'
p5240
sI5241
S'holders'
p5241
sI5242
S'harsh'
p5242
sI5243
S'specifies'
p5243
sI5244
S'stations'
p5244
sI5245
S'pockets'
p5245
sI5246
S'straightforward'
p5246
sI5247
S'engaging'
p5247
sI5248
S'depended'
p5248
sI5249
S'dividends'
p5249
sI5250
S'bill'
p5250
sI5251
S'bid'
p5251
sI5252
S'extending'
p5252
sI5253
S'f'
p5253
sI5254
S'varies'
p5254
sI5255
S'interaction'
p5255
sI5256
S'expences'
p5256
sI5257
S'loves'
p5257
sI5258
S'woud'
p5258
sI5259
S'regain'
p5259
sI5260
S'host'
p5260
sI5261
S'marketable'
p5261
sI5262
S'explainations'
p5262
sI5263
S'lure'
p5263
sI5264
S'voice'
p5264
sI5265
S'widespread'
p5265
sI5266
S'upside'
p5266
sI5267
S'likelyhood'
p5267
sI5268
S'unconvinving'
p5268
sI5269
S'unaffected'
p5269
sI5270
S'posibilities'
p5270
sI5271
S'dedication'
p5271
sI5272
S'containing'
p5272
sI5273
S'trustworthy'
p5273
sI5274
S'emphasized'
p5274
sI5275
S'differents'
p5275
sI5276
S'soaring'
p5276
sI5277
S'inclusive'
p5277
sI5278
S'macroeconomic'
p5278
sI5279
S'os'
p5279
sI5280
S'suv'
p5280
sI5281
S'alike'
p5281
sI5282
S'skillset'
p5282
sI5283
S'fastest'
p5283
sI5284
S'auhtor'
p5284
sI5285
S'reversed'
p5285
sI5286
S'boring'
p5286
sI5287
S'combat'
p5287
sI5288
S'delve'
p5288
sI5289
S'outsell'
p5289
sI5290
S'responses'
p5290
sI5291
S'remedies'
p5291
sI5292
S'inc.'
p5292
sI5293
S'extension'
p5293
sI5294
S'incredible'
p5294
sI5295
S'regional'
p5295
sI5296
S'.to'
p5296
sI5297
S'travel'
p5297
sI5298
S'revisit'
p5298
sI5299
S'minimized'
p5299
sI5300
S'structural'
p5300
sI5301
S'pursuade'
p5301
sI5302
S'pocket'
p5302
sI5303
S'.in'
p5303
sI5304
S'improvment'
p5304
sI5305
S'diverted'
p5305
sI5306
S'advancement'
p5306
sI5307
S'imposed'
p5307
sI5308
S'forming'
p5308
sI5309
S'complications'
p5309
sI5310
S'skewed'
p5310
sI5311
S'maketing'
p5311
sI5312
S'retails'
p5312
sI5313
S'oversimplication'
p5313
sI5314
S'specialists'
p5314
sI5315
S'coincide'
p5315
sI5316
S'peice'
p5316
sI5317
S'bright'
p5317
sI5318
S'dispute'
p5318
sI5319
S'motives'
p5319
sI5320
S'trainning'
p5320
sI5321
S'bond'
p5321
sI5322
S'oder'
p5322
sI5323
S'unbiased'
p5323
sI5324
S'geographic'
p5324
sI5325
S'courses'
p5325
sI5326
S'risen'
p5326
sI5327
S'scheduled'
p5327
sI5328
S'elevated'
p5328
sI5329
S'stylish'
p5329
sI5330
S'leg'
p5330
sI5331
S'destroying'
p5331
sI5332
S'shold'
p5332
sI5333
S'responsibilities'
p5333
sI5334
S'meantime'
p5334
sI5335
S'figured'
p5335
sI5336
S'loans'
p5336
sI5337
S'doesn`t'
p5337
sI5338
S'valuation'
p5338
sI5339
S'reckless'
p5339
sI5340
S'protection'
p5340
sI5341
S'logo'
p5341
sI5342
S'flock'
p5342
sI5343
S'tons'
p5343
sI5344
S'quotes'
p5344
sI5345
S'responding'
p5345
sI5346
S'tenable'
p5346
sI5347
S'benfit'
p5347
sI5348
S'misconception'
p5348
sI5349
S'enacted'
p5349
sI5350
S'caught'
p5350
sI5351
S'fifth'
p5351
sI5352
S'talented'
p5352
sI5353
S'followers'
p5353
sI5354
S'minded'
p5354
sI5355
S'speculative'
p5355
sI5356
S'database'
p5356
sI5357
S'easiest'
p5357
sI5358
S'benchmark'
p5358
sI5359
S'safty'
p5359
sI5360
S'evolution'
p5360
sI5361
S'hits'
p5361
sI5362
S'smartphones'
p5362
sI5363
S'headcount'
p5363
sI5364
S'advertises'
p5364
sI5365
S'sourced'
p5365
sI5366
S'compatible'
p5366
sI5367
S'recognizes'
p5367
sI5368
S'hr'
p5368
sI5369
S'validation'
p5369
sI5370
S'fronts'
p5370
sI5371
S'intrest'
p5371
sI5372
S'undergoing'
p5372
sI5373
S'afforded'
p5373
sI5374
S'trading'
p5374
sI5375
S'mangement'
p5375
sI5376
S'endorse'
p5376
sI5377
S'furthemore'
p5377
sI5378
S'tiny'
p5378
sI5379
S'seven'
p5379
sI5380
S'dreams'
p5380
sI5381
S'traits'
p5381
sI5382
S'prevents'
p5382
sI5383
S'coffee'
p5383
sI5384
S'wisely'
p5384
sI5385
S'referenced'
p5385
sI5386
S'redirecting'
p5386
sI5387
S'playing'
p5387
sI5388
S'regulation'
p5388
sI5389
S'cost-savings'
p5389
sI5390
S'giant'
p5390
sI5391
S'unnecessarily'
p5391
sI5392
S'encountered'
p5392
sI5393
S'injuries'
p5393
sI5394
S'comparation'
p5394
sI5395
S'carefull'
p5395
sI5396
S'moderate'
p5396
sI5397
S'consistant'
p5397
sI5398
S'e.g.'
p5398
sI5399
S'furnish'
p5399
sI5400
S'in-house'
p5400
sI5401
S'struggles'
p5401
sI5402
S'graphs'
p5402
sI5403
S'exceptional'
p5403
sI5404
S'pertains'
p5404
sI5405
S'fellow'
p5405
sI5406
S'necessitate'
p5406
sI5407
S'school'
p5407
sI5408
S'socio-economic'
p5408
sI5409
S'likley'
p5409
sI5410
S'provied'
p5410
sI5411
S'exhibit'
p5411
sI5412
S'possesses'
p5412
sI5413
S'clubs'
p5413
sI5414
S'accountants'
p5414
sI5415
S'portions'
p5415
sI5416
S'succesfully'
p5416
sI5417
S'season'
p5417
sI5418
S'encouraged'
p5418
sI5419
S'wholesale'
p5419
sI5420
S'clientelle'
p5420
sI5421
S'ticket'
p5421
sI5422
S'passes'
p5422
sI5423
S'opposition'
p5423
sI5424
S'competent'
p5424
sI5425
S'thirty'
p5425
sI5426
S'negotiate'
p5426
sI5427
S'addtionally'
p5427
sI5428
S'contrasting'
p5428
sI5429
S'conceivable'
p5429
sI5430
S'nowdays'
p5430
sI5431
S'usa'
p5431
sI5432
S'permanent'
p5432
sI5433
S'performs'
p5433
sI5434
S'postulates'
p5434
sI5435
S'coclusion'
p5435
sI5436
S'wild'
p5436
sI5437
S'long-time'
p5437
sI5438
S'tired'
p5438
sI5439
S'beauty'
p5439
sI5440
S'nations'
p5440
sI5441
S'participate'
p5441
sI5442
S'sensitivity'
p5442
sI5443
S'pressures'
p5443
sI5444
S'distribute'
p5444
sI5445
S'disparity'
p5445
sI5446
S'birth'
p5446
sI5447
S'populations'
p5447
sI5448
S'benefiting'
p5448
sI5449
S'hindered'
p5449
sI5450
S'everywhere'
p5450
sI5451
S'pulled'
p5451
sI5452
S'routes'
p5452
sI5453
S'discerning'
p5453
sI5454
S'planed'
p5454
sI5455
S'anyways'
p5455
sI5456
S'comparitive'
p5456
sI5457
S'dark'
p5457
sI5458
S'displays'
p5458
sI5459
S'signs'
p5459
sI5460
S'heads'
p5460
sI5461
S'modes'
p5461
sI5462
S'acted'
p5462
sI5463
S'admire'
p5463
sI5464
S'counted'
p5464
sI5465
S'boutique'
p5465
sI5466
S'regulatory'
p5466
sI5467
S'steel'
p5467
sI5468
S'selecting'
p5468
sI5469
S'outlets'
p5469
sI5470
S'lift'
p5470
sI5471
S'schemes'
p5471
sI5472
S'streets'
p5472
sI5473
S'applicability'
p5473
sI5474
S'inhibit'
p5474
sI5475
S'east'
p5475
sI5476
S'conviction'
p5476
sI5477
S'succes'
p5477
sI5478
S'depict'
p5478
sI5479
S'night'
p5479
sI5480
S'renovating'
p5480
sI5481
S'boon'
p5481
sI5482
S'dissatisfied'
p5482
sI5483
S'heard'
p5483
sI5484
S'provision'
p5484
sI5485
S'benefited'
p5485
sI5486
S'traning'
p5486
sI5487
S'tradition'
p5487
sI5488
S'framework'
p5488
sI5489
S'detract'
p5489
sI5490
S'trainings'
p5490
sI5491
S'beliefs'
p5491
sI5492
S'tendencies'
p5492
sI5493
S'communicating'
p5493
sI5494
S'overnight'
p5494
sI5495
S'targetted'
p5495
sI5496
S'hands-on'
p5496
sI5497
S'translated'
p5497
sI5498
S'wouldnt'
p5498
sI5499
S'theoretical'
p5499
sI5500
S'fare'
p5500
sI5501
S'agenda'
p5501
sI5502
S'referencing'
p5502
sI5503
S'pursued'
p5503
sI5504
S'processed'
p5504
sI5505
S'extends'
p5505
sI5506
S'accountant'
p5506
sI5507
S'devise'
p5507
sI5508
S'asumes'
p5508
sI5509
S'asian'
p5509
sI5510
S'updates'
p5510
sI5511
S'unrelated'
p5511
sI5512
S'controversial'
p5512
sI5513
S'permit'
p5513
sI5514
S'wars'
p5514
sI5515
S'recieves'
p5515
sI5516
S'distance'
p5516
sI5517
S'whats'
p5517
sI5518
S'felt'
p5518
sI5519
S'measurable'
p5519
sI5520
S'parent'
p5520
sI5521
S'fluctuations'
p5521
sI5522
S'drain'
p5522
sI5523
S'consisted'
p5523
sI5524
S'mcdonald'
p5524
sI5525
S'airlines'
p5525
sI5526
S'encouraging'
p5526
sI5527
S'obligations'
p5527
sI5528
S'demography'
p5528
sI5529
S'functionality'
p5529
sI5530
S'philosophy'
p5530
sI5531
S'pivot'
p5531
sI5532
S'electronics'
p5532
sI5533
S'fluctuation'
p5533
sI5534
S'authority'
p5534
sI5535
S'recieving'
p5535
sI5536
S'distributing'
p5536
sI5537
S'priorities'
p5537
sI5538
S'shelf'
p5538
sI5539
S'metal'
p5539
sI5540
S'uncommon'
p5540
sI5541
S'n'
p5541
sI5542
S'ocean'
p5542
sI5543
S'seasonal'
p5543
sI5544
S'poeple'
p5544
sI5545
S'noticeable'
p5545
sI5546
S'cope'
p5546
sI5547
S'prosperity'
p5547
sI5548
S'continuation'
p5548
sI5549
S'primarly'
p5549
sI5550
S'apparel'
p5550
sI5551
S'extraordinary'
p5551
sI5552
S'acknowledging'
p5552
sI5553
S'okay'
p5553
sI5554
S'specifying'
p5554
sI5555
S'youth'
p5555
sI5556
S'vaguely'
p5556
sI5557
S'9'
p5557
sI5558
S'unstable'
p5558
sI5559
S'dealt'
p5559
sI5560
S'oranges'
p5560
sI5561
S'beeing'
p5561
sI5562
S'exam'
p5562
sI5563
S'shallow'
p5563
sI5564
S'arguable'
p5564
sI5565
S'wall'
p5565
sI5566
S'enact'
p5566
sI5567
S'broadly'
p5567
sI5568
S'intentioned'
p5568
sI5569
S'wisdom'
p5569
sI5570
S'committing'
p5570
sI5571
S'commerce'
p5571
sI5572
S'format'
p5572
sI5573
S'internationally'
p5573
sI5574
S'programming'
p5574
sI5575
S'initiate'
p5575
sI5576
S'teacher'
p5576
sI5577
S'newspaper'
p5577
sI5578
S'presumption'
p5578
sI5579
S'cusotmers'
p5579
sI5580
S'foundations'
p5580
sI5581
S'appealed'
p5581
sI5582
S'exponential'
p5582
sI5583
S'formal'
p5583
sI5584
S'behave'
p5584
sI5585
S'uncertainties'
p5585
sI5586
S'maturity'
p5586
sI5587
S'scratch'
p5587
sI5588
S'inferences'
p5588
sI5589
S'witness'
p5589
sI5590
S'dominated'
p5590
sI5591
S'intersted'
p5591
sI5592
S'favoring'
p5592
sI5593
S'tecnology'
p5593
sI5594
S'rooms'
p5594
sI5595
S'day-to-day'
p5595
sI5596
S'renovations'
p5596
sI5597
S'continual'
p5597
sI5598
S'hike'
p5598
sI5599
S'reserve'
p5599
sI5600
S'guidance'
p5600
sI5601
S'designers'
p5601
sI5602
S'reaons'
p5602
sI5603
S'peer'
p5603
sI5604
S'possitive'
p5604
sI5605
S'promised'
p5605
sI5606
S'confirmation'
p5606
sI5607
S'domain'
p5607
sI5608
S'directing'
p5608
sI5609
S'honest'
p5609
sI5610
S'staffed'
p5610
sI5611
S'competiting'
p5611
sI5612
S'orientation'
p5612
sI5613
S'phrase'
p5613
sI5614
S'banks'
p5614
sI5615
S'payed'
p5615
sI5616
S'grew'
p5616
sI5617
S'stagnation'
p5617
sI5618
S'reads'
p5618
sI5619
S'youngsters'
p5619
sI5620
S'outright'
p5620
sI5621
S'happend'
p5621
sI5622
S'busines'
p5622
sI5623
S'attact'
p5623
sI5624
S'cellphone'
p5624
sI5625
S'examines'
p5625
sI5626
S'asia'
p5626
sI5627
S'supporters'
p5627
sI5628
S'wary'
p5628
sI5629
S'minority'
p5629
sI5630
S'inflow'
p5630
sI5631
S'emphasizing'
p5631
sI5632
S'retire'
p5632
sI5633
S'equiped'
p5633
sI5634
S'flying'
p5634
sI5635
S'ethics'
p5635
sI5636
S'conlude'
p5636
sI5637
S'developments'
p5637
sI5638
S'showcasing'
p5638
sI5639
S'nominal'
p5639
sI5640
S'surprising'
p5640
sI5641
S'shot'
p5641
sI5642
S'corner'
p5642
sI5643
S'spaces'
p5643
sI5644
S'accountable'
p5644
sI5645
S'extensively'
p5645
sI5646
S'celebrity'
p5646
sI5647
S'generalizing'
p5647
sI5648
S'strain'
p5648
sI5649
S'caring'
p5649
sI5650
S'caliber'
p5650
sI5651
S'conspiciously'
p5651
sI5652
S'mentality'
p5652
sI5653
S'opposing'
p5653
sI5654
S'complementary'
p5654
sI5655
S'secret'
p5655
sI5656
S'planing'
p5656
sI5657
S'denying'
p5657
sI5658
S'2008'
p5658
sI5659
S'bunch'
p5659
sI5660
S'south'
p5660
sI5661
S'citizen'
p5661
sI5662
S'stuffs'
p5662
sI5663
S'prevalent'
p5663
sI5664
S'paired'
p5664
sI5665
S'spike'
p5665
sI5666
S'substatiate'
p5666
sI5667
S'ran'
p5667
sI5668
S'isolated'
p5668
sI5669
S'colors'
p5669
sI5670
S'isolation'
p5670
sI5671
S'belongs'
p5671
sI5672
S'appearing'
p5672
sI5673
S'finanical'
p5673
sI5674
S'emerge'
p5674
sI5675
S'begs'
p5675
sI5676
S'availble'
p5676
sI5677
S'white'
p5677
sI5678
S'college'
p5678
sI5679
S'pilot'
p5679
sI5680
S'samples'
p5680
sI5681
S'moot'
p5681
sI5682
S'inflated'
p5682
sI5683
S'feed'
p5683
sI5684
S'king'
p5684
sI5685
S'conception'
p5685
sI5686
S'thoes'
p5686
sI5687
S'obstacle'
p5687
sI5688
S'chosing'
p5688
sI5689
S'counterarguments'
p5689
sI5690
S'up-to-date'
p5690
sI5691
S'hinders'
p5691
sI5692
S'europe'
p5692
sI5693
S'.this'
p5693
sI5694
S'conveyed'
p5694
sI5695
S'contradictory'
p5695
sI5696
S'cusomers'
p5696
sI5697
S'basics'
p5697
sI5698
S'kids'
p5698
sI5699
S'win-win'
p5699
sI5700
S'assures'
p5700
sI5701
S'advisors'
p5701
sI5702
S'athor'
p5702
sI5703
S'indicative'
p5703
sI5704
S'magazines'
p5704
sI5705
S'attrition'
p5705
sI5706
S'brilliant'
p5706
sI5707
S'compelled'
p5707
sI5708
S'internet'
p5708
sI5709
S'sited'
p5709
sI5710
S'vacation'
p5710
sI5711
S'gdp'
p5711
sI5712
S'seating'
p5712
sI5713
S'plane'
p5713
sI5714
S'authentic'
p5714
sI5715
S'roots'
p5715
sI5716
S'adressing'
p5716
sI5717
S'far-fetched'
p5717
sI5718
S'doe'
p5718
sI5719
S'expresses'
p5719
sI5720
S'static'
p5720
sI5721
S'proove'
p5721
sI5722
S'refuting'
p5722
sI5723
S'restrictions'
p5723
sI5724
S'researchs'
p5724
sI5725
S'unattractive'
p5725
sI5726
S'inc'
p5726
sI5727
S'blanket'
p5727
sI5728
S'well-trained'
p5728
sI5729
S'uptick'
p5729
sI5730
S'guarenteed'
p5730
sI5731
S'cooperation'
p5731
sI5732
S'linkage'
p5732
sI5733
S'accepts'
p5733
sI5734
S'promises'
p5734
sI5735
S'uniform'
p5735
sI5736
S'incoming'
p5736
sI5737
S'trial'
p5737
sI5738
S'mr.'
p5738
sI5739
S'seldom'
p5739
sI5740
S'actively'
p5740
sI5741
S'unverified'
p5741
sI5742
S'exploit'
p5742
sI5743
S'noble'
p5743
sI5744
S'amd'
p5744
sI5745
S'occasions'
p5745
sI5746
S'exciting'
p5746
sI5747
S'log'
p5747
sI5748
S'foster'
p5748
sI5749
S'peole'
p5749
sI5750
S'emotions'
p5750
sI5751
S'toys'
p5751
sI5752
S'pushed'
p5752
sI5753
S'equating'
p5753
sI5754
S'performances'
p5754
sI5755
S'clean'
p5755
sI5756
S'prosper'
p5756
sI5757
S'budgeted'
p5757
sI5758
S'loop'
p5758
sI5759
S'bonus'
p5759
sI5760
S'cleary'
p5760
sI5761
S'intuitive'
p5761
sI5762
S'practically'
p5762
sI5763
S'evenly'
p5763
sI5764
S'relocated'
p5764
sI5765
S'picked'
p5765
sI5766
S'experiment'
p5766
sI5767
S'volatile'
p5767
sI5768
S'providers'
p5768
sI5769
S'map'
p5769
sI5770
S'achievements'
p5770
sI5771
S'succeeds'
p5771
sI5772
S'bet'
p5772
sI5773
S'undeniable'
p5773
sI5774
S'well-being'
p5774
sI5775
S'partners'
p5775
sI5776
S'articulate'
p5776
sI5777
S'north'
p5777
sI5778
S'teaching'
p5778
sI5779
S'fantastic'
p5779
sI5780
S'county'
p5780
sI5781
S'leasing'
p5781
sI5782
S'crew'
p5782
sI5783
S'stresses'
p5783
sI5784
S'smartphone'
p5784
sI5785
S'france'
p5785
sI5786
S'equip'
p5786
sI5787
S'automakers'
p5787
sI5788
S'interior'
p5788
sI5789
S'alarming'
p5789
sI5790
S'wake'
p5790
sI5791
S'relavant'
p5791
sI5792
S'imagination'
p5792
sI5793
S'mill'
p5793
sI5794
S'complain'
p5794
sI5795
S'aged'
p5795
sI5796
S'logistic'
p5796
sI5797
S'benfits'
p5797
sI5798
S'modest'
p5798
sI5799
S'truck'
p5799
sI5800
S'rejection'
p5800
sI5801
S'contradiction'
p5801
sI5802
S'private'
p5802
sI5803
S'thrill'
p5803
sI5804
S'lagging'
p5804
sI5805
S'eight'
p5805
sI5806
S'instant'
p5806
sI5807
S'tighten'
p5807
sI5808
S'reporting'
p5808
sI5809
S'artical'
p5809
sI5810
S'hearing'
p5810
sI5811
S'toy'
p5811
sI5812
S'contact'
p5812
sI5813
S'farther'
p5813
sI5814
S'questionnable'
p5814
sI5815
S'nike'
p5815
sI5816
S'cultural'
p5816
sI5817
S'hedge'
p5817
sI5818
S'researchers'
p5818
sI5819
S'relocation'
p5819
sI5820
S'simplicity'
p5820
sI5821
S'communities'
p5821
sI5822
S'thrown'
p5822
sI5823
S'bare'
p5823
sI5824
S'hesitant'
p5824
sI5825
S'abilities'
p5825
sI5826
S'sequence'
p5826
sI5827
S'cloth'
p5827
sI5828
S'relocate'
p5828
sI5829
S'scales'
p5829
sI5830
S'attend'
p5830
sI5831
S'bills'
p5831
sI5832
S'penetrate'
p5832
sI5833
S'budgeting'
p5833
sI5834
S'persue'
p5834
sI5835
S'dependency'
p5835
sI5836
S'percents'
p5836
sI5837
S'bonuses'
p5837
sI5838
S'music'
p5838
sI5839
S'undercut'
p5839
sI5840
S'universally'
p5840
sI5841
S'predictable'
p5841
sI5842
S'meetings'
p5842
sI5843
S'specialist'
p5843
sI5844
S'enters'
p5844
sI5845
S'remind'
p5845
sI5846
S'ambitious'
p5846
sI5847
S'funded'
p5847
sI5848
S'monitoring'
p5848
sI5849
S'experiments'
p5849
sI5850
S'globalization'
p5850
sI5851
S'governing'
p5851
sI5852
S'patronage'
p5852
sI5853
S'emotion'
p5853
sI5854
S'fashionable'
p5854
sI5855
S'bussines'
p5855
sI5856
S'expression'
p5856
sI5857
S'reflective'
p5857
sI5858
S'unsafe'
p5858
sI5859
S'downs'
p5859
sI5860
S'associating'
p5860
sI5861
S'walks'
p5861
sI5862
S'mimic'
p5862
sI5863
S'welfare'
p5863
sI5864
S'norm'
p5864
sI5865
S'revealing'
p5865
sI5866
S'perfomance'
p5866
sI5867
S'factos'
p5867
sI5868
S'approaching'
p5868
sI5869
S'movie'
p5869
sI5870
S'interface'
p5870
sI5871
S'underperforming'
p5871
sI5872
S'emergency'
p5872
sI5873
S'inclination'
p5873
sI5874
S'medical'
p5874
sI5875
S'fresh'
p5875
sI5876
S'index'
p5876
sI5877
S'occurred'
p5877
sI5878
S'integrating'
p5878
sI5879
S'succesfull'
p5879
sI5880
S'instruments'
p5880
sI5881
S'subset'
p5881
sI5882
S'transferable'
p5882
sI5883
S'scene'
p5883
sI5884
S'atmosphere'
p5884
sI5885
S'rough'
p5885
sI5886
S'nuances'
p5886
sI5887
S'email'
p5887
sI5888
S'aquiring'
p5888
sI5889
S'progression'
p5889
sI5890
S'classified'
p5890
sI5891
S'recognizable'
p5891
sI5892
S'cameras'
p5892
sI5893
S'recovering'
p5893
sI5894
S'convience'
p5894
sI5895
S'contents'
p5895
sI5896
S'genuine'
p5896
sI5897
S'correlating'
p5897
sI5898
S'tone'
p5898
sI5899
S'hassle'
p5899
sI5900
S'minimization'
p5900
sI5901
S'zone'
p5901
sI5902
S'immediatly'
p5902
sI5903
S'cold'
p5903
sI5904
S'window'
p5904
sI5905
S'physically'
p5905
sI5906
S'nearby'
p5906
sI5907
S'jeans'
p5907
sI5908
S'enjoyment'
p5908
sI5909
S'recorded'
p5909
sI5910
S'involvement'
p5910
sI5911
S'delayed'
p5911
sI5912
S'recurring'
p5912
sI5913
S'publish'
p5913
sI5914
S'resourse'
p5914
sI5915
S'businessmen'
p5915
sI5916
S'environmentally'
p5916
sI5917
S'sentences'
p5917
sI5918
S'steal'
p5918
sI5919
S'surveyed'
p5919
sI5920
S'pictures'
p5920
sI5921
S'won'
p5921
sI5922
S'employement'
p5922
sI5923
S'savvy'
p5923
sI5924
S'motivating'
p5924
sI5925
S'abroad'
p5925
sI5926
S'adults'
p5926
sI5927
S'enforce'
p5927
sI5928
S'mentiones'
p5928
sI5929
S'convinient'
p5929
sI5930
S'well-established'
p5930
sI5931
S'businessman'
p5931
sI5932
S'endless'
p5932
sI5933
S'shy'
p5933
sI5934
S'genre'
p5934
sI5935
S'rewarding'
p5935
sI5936
S'maxmize'
p5936
sI5937
S'artists'
p5937
sI5938
S'inner'
p5938
sI5939
S'empolyees'
p5939
sI5940
S'performace'
p5940
sI5941
S'surprise'
p5941
sI5942
S'u.s.'
p5942
sI5943
S'immensely'
p5943
sI5944
S'mine'
p5944
sI5945
S'coast'
p5945
sI5946
S'intellectual'
p5946
sI5947
S'commuting'
p5947
sI5948
S'makeup'
p5948
sI5949
S'requesting'
p5949
sI5950
S'18'
p5950
sI5951
S'motivations'
p5951
sI5952
S'spendings'
p5952
sI5953
S'retiring'
p5953
sI5954
S'commute'
p5954
sI5955
S'transit'
p5955
sI5956
S'africa'
p5956
sI5957
S'sophistication'
p5957
sI5958
S'inception'
p5958
sI5959
S'ages'
p5959
sI5960
S'joining'
p5960
sI5961
S'complement'
p5961
sI5962
S'realm'
p5962
sI5963
S'invite'
p5963
sI5964
S'negating'
p5964
sI5965
S'leisure'
p5965
sI5966
S'arrangements'
p5966
sI5967
S'noise'
p5967
sI5968
S'enticed'
p5968
sI5969
S'repeated'
p5969
sI5970
S'variations'
p5970
sI5971
S'avaliable'
p5971
sI5972
S'estate'
p5972
sI5973
S'actuality'
p5973
sI5974
S'rental'
p5974
sI5975
S'prohibit'
p5975
sI5976
S'restrict'
p5976
sI5977
S'formulate'
p5977
sI5978
S'treats'
p5978
sI5979
S'inspire'
p5979
sI5980
S'random'
p5980
sI5981
S'habit'
p5981
sI5982
S'prioritize'
p5982
sI5983
S'monitored'
p5983
sI5984
S'dinner'
p5984
sI5985
S'outperform'
p5985
sI5986
S'successes'
p5986
sI5987
S'unqualified'
p5987
sI5988
S'commercials'
p5988
sI5989
S'duplicated'
p5989
sI5990
S'subjected'
p5990
sI5991
S'novel'
p5991
sI5992
S'programme'
p5992
sI5993
S'invention'
p5993
sI5994
S'underserved'
p5994
sI5995
S'happier'
p5995
sI5996
S'exporting'
p5996
sI5997
S'organic'
p5997
sI5998
S'1500'
p5998
sI5999
S'migration'
p5999
sI6000
S'countires'
p6000
sI6001
S'generations'
p6001
sI6002
S'sky'
p6002
sI6003
S'upwards'
p6003
sI6004
S'democratic'
p6004
sI6005
S'wine'
p6005
sI6006
S'rewarded'
p6006
sI6007
S'striking'
p6007
sI6008
S'drove'
p6008
sI6009
S'shelves'
p6009
sI6010
S'affairs'
p6010
sI6011
S'taxation'
p6011
sI6012
S'busy'
p6012
sI6013
S'portrayed'
p6013
sI6014
S'succeeding'
p6014
sI6015
S'psychological'
p6015
sI6016
S'avail'
p6016
sI6017
S'posting'
p6017
sI6018
S'winter'
p6018
sI6019
S'square'
p6019
sI6020
S'breakthrough'
p6020
sI6021
S'settings'
p6021
sI6022
S'screen'
p6022
sI6023
S'spark'
p6023
sI6024
S'west'
p6024
sI6025
S'al'
p6025
sI6026
S'improperly'
p6026
sI6027
S'male'
p6027
sI6028
S'station'
p6028
sI6029
S'rised'
p6029
sI6030
S'microsoft'
p6030
sI6031
S'wording'
p6031
sI6032
S'gold'
p6032
sI6033
S'overwhelmed'
p6033
sI6034
S'preparing'
p6034
sI6035
S'hardship'
p6035
sI6036
S'curious'
p6036
sI6037
S'slump'
p6037
sI6038
S'stocked'
p6038
sI6039
S'video'
p6039
sI6040
S'fifteen'
p6040
sI6041
S'elementary'
p6041
sI6042
S'device'
p6042
sI6043
S'entities'
p6043
sI6044
S'shaping'
p6044
sI6045
S'evolving'
p6045
sI6046
S'amazon'
p6046
sI6047
S'garage'
p6047
sI6048
S'odds'
p6048
sI6049
S'stressed'
p6049
sI6050
S'interview'
p6050
sI6051
S'mayor'
p6051
sI6052
S'benchmarking'
p6052
sI6053
S'conducive'
p6053
sI6054
S'oppotunities'
p6054
sI6055
S'wrongfully'
p6055
sI6056
S'invaluable'
p6056
sI6057
S'properties'
p6057
sI6058
S'newspapers'
p6058
sI6059
S'continous'
p6059
sI6060
S'precedent'
p6060
sI6061
S'retired'
p6061
sI6062
S'club'
p6062
sI6063
S'brain'
p6063
sI6064
S'households'
p6064
sI6065
S'credits'
p6065
sI6066
S'incline'
p6066
sI6067
S'renovate'
p6067
sI6068
S'cosmetic'
p6068
sI6069
S'injury'
p6069
sI6070
S'nine'
p6070
sI6071
S'stayed'
p6071
sI6072
S'unhealthy'
p6072
sI6073
S'houses'
p6073
sI6074
S'assign'
p6074
sI6075
S'randomly'
p6075
sI6076
S'hires'
p6076
sI6077
S'grocery'
p6077
sI6078
S'protecting'
p6078
sI6079
S'viewpoints'
p6079
sI6080
S'block'
p6080
sI6081
S'camera'
p6081
sI6082
S'university'
p6082
sI6083
S'pools'
p6083
sI6084
S'survery'
p6084
sI6085
S'strange'
p6085
sI6086
S'overlap'
p6086
sI6087
S'journal'
p6087
sI6088
S'neutral'
p6088
sI6089
S'disruptive'
p6089
sI6090
S'similarity'
p6090
sI6091
S'unskilled'
p6091
sI6092
S'gasoline'
p6092
sI6093
S'roof'
p6093
sI6094
S'advancing'
p6094
sI6095
S'suceed'
p6095
sI6096
S'unsuccessful'
p6096
sI6097
S'enabled'
p6097
sI6098
S'tapping'
p6098
sI6099
S'unfortunate'
p6099
sI6100
S'settled'
p6100
sI6101
S'refined'
p6101
sI6102
S'weekend'
p6102
sI6103
S'die'
p6103
sI6104
S'knowledgable'
p6104
sI6105
S'swayed'
p6105
sI6106
S'california'
p6106
sI6107
S'communicated'
p6107
sI6108
S'contemporary'
p6108
sI6109
S'median'
p6109
sI6110
S'traded'
p6110
sI6111
S'movements'
p6111
sI6112
S'heavier'
p6112
sI6113
S'careers'
p6113
sI6114
S'servey'
p6114
sI6115
S'spreading'
p6115
sI6116
S'file'
p6116
sI6117
S'importing'
p6117
sI6118
S'24'
p6118
sI6119
S'micro'
p6119
sI6120
S'mental'
p6120
sI6121
S'recording'
p6121
sI6122
S'dividing'
p6122
sI6123
S'visiting'
p6123
sI6124
S'restaurant'
p6124
sI6125
S'powers'
p6125
sI6126
S'copying'
p6126
sI6127
S'google'
p6127
sI6128
S'bored'
p6128
sI6129
S'favourite'
p6129
sI6130
S'buildings'
p6130
sI6131
S'300,000'
p6131
sI6132
S'ipad'
p6132
sI6133
S'interpreted'
p6133
sI6134
S'hobbies'
p6134
sI6135
S'finite'
p6135
sI6136
S'chains'
p6136
sI6137
S'bankrupcy'
p6137
sI6138
S'resolution'
p6138
sI6139
S'transporation'
p6139
sI6140
S'hide'
p6140
sI6141
S'preserving'
p6141
sI6142
S'heights'
p6142
sI6143
S'sucessfully'
p6143
sI6144
S'shortly'
p6144
sI6145
S'transporting'
p6145
sI6146
S'attacks'
p6146
sI6147
S'remarkable'
p6147
sI6148
S'discovering'
p6148
sI6149
S'secured'
p6149
sI6150
S'branches'
p6150
sI6151
S'corners'
p6151
sI6152
S'releases'
p6152
sI6153
S'icon'
p6153
sI6154
S'slope'
p6154
sI6155
S'spirit'
p6155
sI6156
S'myself'
p6156
sI6157
S'unsatisfactory'
p6157
sI6158
S'footprint'
p6158
sI6159
S'resonate'
p6159
sI6160
S"'the"
p6160
sI6161
S'belonging'
p6161
sI6162
S'woman'
p6162
sI6163
S'observing'
p6163
sI6164
S'court'
p6164
sI6165
S'fallen'
p6165
sI6166
S'hotel'
p6166
sI6167
S'reside'
p6167
sI6168
S'cooperate'
p6168
sI6169
S'patronize'
p6169
sI6170
S'crash'
p6170
sI6171
S'conflicts'
p6171
sI6172
S'activites'
p6172
sI6173
S'spur'
p6173
sI6174
S'environments'
p6174
sI6175
S'urges'
p6175
sI6176
S'attarct'
p6176
sI6177
S'volatility'
p6177
sI6178
S'alienates'
p6178
sI6179
S'best-selling'
p6179
sI6180
S'relax'
p6180
sI6181
S'currency'
p6181
sI6182
S'shopper'
p6182
sI6183
S'engagement'
p6183
sI6184
S'automaker'
p6184
sI6185
S'professor'
p6185
sI6186
S'tempted'
p6186
sI6187
S'tips'
p6187
sI6188
S'societies'
p6188
sI6189
S'parallels'
p6189
sI6190
S'shadow'
p6190
sI6191
S'geography'
p6191
sI6192
S'remainder'
p6192
sI6193
S'proactive'
p6193
sI6194
S'unsuitable'
p6194
sI6195
S'walking'
p6195
sI6196
S'dissimilar'
p6196
sI6197
S'furnishing'
p6197
sI6198
S'summer'
p6198
sI6199
S'stong'
p6199
sI6200
S'healthier'
p6200
sI6201
S'luck'
p6201
sI6202
S'initiated'
p6202
sI6203
S'science'
p6203
sI6204
S'everytime'
p6204
sI6205
S'offline'
p6205
sI6206
S'qualify'
p6206
sI6207
S'contry'
p6207
sI6208
S'continously'
p6208
sI6209
S'effectivness'
p6209
sI6210
S'aswell'
p6210
sI6211
S'posted'
p6211
sI6212
S'practicing'
p6212
sI6213
S'2012'
p6213
sI6214
S'colleagues'
p6214
sI6215
S'disband'
p6215
sI6216
S'cc'
p6216
sI6217
S'indications'
p6217
sI6218
S'literally'
p6218
sI6219
S'excitement'
p6219
sI6220
S'prosperous'
p6220
sI6221
S'lately'
p6221
sI6222
S'organize'
p6222
sI6223
S'observes'
p6223
sI6224
S'industires'
p6224
sI6225
S'succed'
p6225
sI6226
S'unemployement'
p6226
sI6227
S'denied'
p6227
sI6228
S'participation'
p6228
sI6229
S'nationwide'
p6229
sI6230
S'computing'
p6230
sI6231
S'aggressively'
p6231
sI6232
S'flourish'
p6232
sI6233
S'thrid'
p6233
sI6234
S'knowledgeable'
p6234
sI6235
S'geographically'
p6235
sI6236
S'twelve'
p6236
sI6237
S'saftey'
p6237
sI6238
S'seasoned'
p6238
sI6239
S'circulation'
p6239
sI6240
S'homes'
p6240
sI6241
S'amoung'
p6241
sI6242
S'motivates'
p6242
sI6243
S'starbucks'
p6243
sI6244
S'circle'
p6244
sI6245
S'territory'
p6245
sI6246
S'lived'
p6246
sI6247
S'trendy'
p6247
sI6248
S'developped'
p6248
sI6249
S'aquired'
p6249
sI6250
S'excluded'
p6250
sI6251
S'wave'
p6251
sI6252
S'assignments'
p6252
sI6253
S'benefitted'
p6253
sI6254
S'entertainment'
p6254
sI6255
S'critics'
p6255
sI6256
S'enforced'
p6256
sI6257
S'pitch'
p6257
sI6258
S'interfere'
p6258
sI6259
S'discouraged'
p6259
sI6260
S'restore'
p6260
sI6261
S'distant'
p6261
sI6262
S'homework'
p6262
sI6263
S'universal'
p6263
sI6264
S'rights'
p6264
sI6265
S'aging'
p6265
sI6266
S'persist'
p6266
sI6267
S'loud'
p6267
sI6268
S'preparation'
p6268
sI6269
S'knowlege'
p6269
sI6270
S'assisting'
p6270
sI6271
S'bar'
p6271
sI6272
S'imitate'
p6272
sI6273
S'picking'
p6273
sI6274
S'website'
p6274
sI6275
S'invent'
p6275
sI6276
S'21st'
p6276
sI6277
S'conveniently'
p6277
sI6278
S'rock'
p6278
sI6279
S'isolate'
p6279
sI6280
S'worrying'
p6280
sI6281
S'advertizing'
p6281
sI6282
S'generalisation'
p6282
sI6283
S'unusual'
p6283
sI6284
S'socially'
p6284
sI6285
S'noticing'
p6285
sI6286
S'print'
p6286
sI6287
S'mirror'
p6287
sI6288
S'frames'
p6288
sI6289
S'responded'
p6289
sI6290
S'industy'
p6290
sI6291
S'approached'
p6291
sI6292
S'developement'
p6292
sI6293
S'boss'
p6293
sI6294
S'partner'
p6294
sI6295
S'injured'
p6295
sI6296
S'admitted'
p6296
sI6297
S'suvs'
p6297
sI6298
S'rank'
p6298
sI6299
S'feedbacks'
p6299
sI6300
S'wildly'
p6300
sI6301
S'urban'
p6301
sI6302
S'radio'
p6302
sI6303
S'occurance'
p6303
sI6304
S'variance'
p6304
sI6305
S'teenager'
p6305
sI6306
S'offices'
p6306
sI6307
S'booking'
p6307
sI6308
S'lights'
p6308
sI6309
S'entertain'
p6309
sI6310
S'populated'
p6310
sI6311
S'begun'
p6311
sI6312
S'legislation'
p6312
sI6313
S'dying'
p6313
sI6314
S'slice'
p6314
sI6315
S'quitting'
p6315
sI6316
S'informing'
p6316
sI6317
S'fad'
p6317
sI6318
S'treating'
p6318
sI6319
S'themself'
p6319
sI6320
S'supplements'
p6320
sI6321
S'flag'
p6321
sI6322
S'debated'
p6322
sI6323
S'cultivate'
p6323
sI6324
S'somebody'
p6324
sI6325
S'adhere'
p6325
sI6326
S'interact'
p6326
sI6327
S'achievement'
p6327
sI6328
S'securing'
p6328
sI6329
S'bars'
p6329
sI6330
S'enhancements'
p6330
sI6331
S'indefinitely'
p6331
sI6332
S'anybody'
p6332
sI6333
S'state-of-the-art'
p6333
sI6334
S'repeatedly'
p6334
sI6335
S'clever'
p6335
sI6336
S'behaviours'
p6336
sI6337
S'stories'
p6337
sI6338
S'collar'
p6338
sI6339
S'english'
p6339
sI6340
S'formation'
p6340
sI6341
S'advices'
p6341
sI6342
S'disturb'
p6342
sI6343
S'cyclical'
p6343
sI6344
S'opponents'
p6344
sI6345
S'intake'
p6345
sI6346
S'unjust'
p6346
sI6347
S'schools'
p6347
sI6348
S'lessons'
p6348
sI6349
S'european'
p6349
sI6350
S'measurements'
p6350
sI6351
S'recipe'
p6351
sI6352
S'educate'
p6352
sI6353
S'familar'
p6353
sI6354
S'visual'
p6354
sI6355
S'sucessfull'
p6355
sI6356
S'redirected'
p6356
sI6357
S'restriction'
p6357
sI6358
S'scientists'
p6358
sI6359
S'disturbed'
p6359
sI6360
S'generalizes'
p6360
sI6361
S'golf'
p6361
sI6362
S'liquid'
p6362
sI6363
S'manger'
p6363
sI6364
S'sea'
p6364
sI6365
S'rejecting'
p6365
sI6366
S'towns'
p6366
sI6367
S'ecomony'
p6367
sI6368
S'35'
p6368
sI6369
S'climb'
p6369
sI6370
S'collective'
p6370
sI6371
S'spring'
p6371
sI6372
S'transactions'
p6372
sI6373
S'recruitment'
p6373
sI6374
S'baby'
p6374
sI6375
S'benefitting'
p6375
sI6376
S'stars'
p6376
sI6377
S'bother'
p6377
sI6378
S'necessities'
p6378
sI6379
S'economist'
p6379
sI6380
S'redirect'
p6380
sI6381
S'autos'
p6381
sI6382
S'audit'
p6382
sI6383
S'practise'
p6383
sI6384
S'unfavourable'
p6384
sI6385
S'outsold'
p6385
sI6386
S'tickets'
p6386
sI6387
S'chef'
p6387
sI6388
S'socioeconomic'
p6388
sI6389
S'pizza'
p6389
sI6390
S'occurence'
p6390
sI6391
S'scare'
p6391
sI6392
S'supermarkets'
p6392
sI6393
S'rated'
p6393
sI6394
S'renting'
p6394
sI6395
S'versed'
p6395
sI6396
S'publicly'
p6396
sI6397
S'victim'
p6397
sI6398
S'fares'
p6398
sI6399
S'born'
p6399
sI6400
S'ethic'
p6400
sI6401
S'vicinity'
p6401
sI6402
S'obligation'
p6402
sI6403
S'fruits'
p6403
sI6404
S'skew'
p6404
sI6405
S'coworkers'
p6405
sI6406
S'fruit'
p6406
sI6407
S'treatment'
p6407
sI6408
S'child'
p6408
sI6409
S'receptive'
p6409
sI6410
S'tracking'
p6410
sI6411
S'relocating'
p6411
sI6412
S'mcdonalds'
p6412
sI6413
S'justice'
p6413
sI6414
S'sacrifices'
p6414
sI6415
S'descriptions'
p6415
sI6416
S'elect'
p6416
sI6417
S'compact'
p6417
sI6418
S'attending'
p6418
sI6419
S'fuels'
p6419
sI6420
S'eachother'
p6420
sI6421
S'tire'
p6421
sI6422
S'seasonality'
p6422
sI6423
S'joint'
p6423
sI6424
S'page'
p6424
sI6425
S'pinpoint'
p6425
sI6426
S'signed'
p6426
sI6427
S'messages'
p6427
sI6428
S'featured'
p6428
sI6429
S'debts'
p6429
sI6430
S'folks'
p6430
sI6431
S'exports'
p6431
sI6432
S'brazil'
p6432
sI6433
S'lazy'
p6433
sI6434
S'exception'
p6434
sI6435
S'metropolitan'
p6435
sI6436
S'concious'
p6436
sI6437
S'locality'
p6437
sI6438
S'skin'
p6438
sI6439
S'milk'
p6439
sI6440
S'governments'
p6440
sI6441
S'hotels'
p6441
sI6442
S'messaging'
p6442
sI6443
S'protected'
p6443
sI6444
S'pain'
p6444
sI6445
S'enthusiasm'
p6445
sI6446
S'ranking'
p6446
sI6447
S'designated'
p6447
sI6448
S'eco-friendly'
p6448
sI6449
S'cancer'
p6449
sI6450
S'imitated'
p6450
sI6451
S'remote'
p6451
sI6452
S'suburban'
p6452
sI6453
S'longtime'
p6453
sI6454
S'pre-existing'
p6454
sI6455
S'permission'
p6455
sI6456
S'sphere'
p6456
sI6457
S'situtation'
p6457
sI6458
S'fat'
p6458
sI6459
S'objects'
p6459
sI6460
S'harvest'
p6460
sI6461
S'lecture'
p6461
sI6462
S'establishments'
p6462
sI6463
S'venturing'
p6463
sI6464
S'enthusiastic'
p6464
sI6465
S'optional'
p6465
sI6466
S'copies'
p6466
sI6467
S'tighter'
p6467
sI6468
S'emplyee'
p6468
sI6469
S'proximity'
p6469
sI6470
S'billions'
p6470
sI6471
S'patience'
p6471
sI6472
S'attrack'
p6472
sI6473
S'ambassadors'
p6473
sI6474
S'replicating'
p6474
sI6475
S'attractions'
p6475
sI6476
S'western'
p6476
sI6477
S'earth'
p6477
sI6478
S'discovery'
p6478
sI6479
S'participating'
p6479
sI6480
S'enterprises'
p6480
sI6481
S'row'
p6481
sI6482
S'watching'
p6482
sI6483
S'classroom'
p6483
sI6484
S'catching'
p6484
sI6485
S'distributor'
p6485
sI6486
S'hungry'
p6486
sI6487
S'federal'
p6487
sI6488
S'furniture'
p6488
sI6489
S'burdens'
p6489
sI6490
S'participants'
p6490
sI6491
S'metals'
p6491
sI6492
S'emulate'
p6492
sI6493
S'50000'
p6493
sI6494
S'soccer'
p6494
sI6495
S'organised'
p6495
sI6496
S'feet'
p6496
sI6497
S'windows'
p6497
sI6498
S'plateau'
p6498
sI6499
S'filed'
p6499
sI6500
S'encourages'
p6500
sI6501
S'attaining'
p6501
sI6502
S'steve'
p6502
sI6503
S'traveling'
p6503
sI6504
S'networks'
p6504
sI6505
S'chaos'
p6505
sI6506
S'affective'
p6506
sI6507
S'york'
p6507
sI6508
S'frustrated'
p6508
sI6509
S'retailing'
p6509
sI6510
S'cellphones'
p6510
sI6511
S'fighting'
p6511
sI6512
S'platforms'
p6512
sI6513
S'triggered'
p6513
sI6514
S'mutual'
p6514
sI6515
S'reporter'
p6515
sI6516
S'military'
p6516
sI6517
S'loyalties'
p6517
sI6518
S'campaing'
p6518
sI6519
S'menu'
p6519
sI6520
S'theme'
p6520
sI6521
S'score'
p6521
sI6522
S'carbon'
p6522
sI6523
S'infastructure'
p6523
sI6524
S'homogeneity'
p6524
sI6525
S'entrants'
p6525
sI6526
S'talents'
p6526
sI6527
S'undergone'
p6527
sI6528
S'instability'
p6528
sI6529
S'suvey'
p6529
sI6530
S'salt'
p6530
sI6531
S'planet'
p6531
sI6532
S'managements'
p6532
sI6533
S'vacant'
p6533
sI6534
S'weekly'
p6534
sI6535
S'societal'
p6535
sI6536
S'stealing'
p6536
sI6537
S'graduate'
p6537
sI6538
S'mall'
p6538
sI6539
S'preservation'
p6539
sI6540
S'campain'
p6540
sI6541
S'bookings'
p6541
sI6542
S'distraction'
p6542
sI6543
S'banking'
p6543
sI6544
S'compeition'
p6544
sI6545
S'systematic'
p6545
sI6546
S'parents'
p6546
sI6547
S'communications'
p6547
sI6548
S'religion'
p6548
sI6549
S'apartments'
p6549
sI6550
S'supervisor'
p6550
sI6551
S'opportunites'
p6551
sI6552
S'perks'
p6552
sI6553
S'mills'
p6553
sI6554
S'deficits'
p6554
sI6555
S'trajectory'
p6555
sI6556
S'colour'
p6556
sI6557
S'web'
p6557
sI6558
S'cosmetics'
p6558
sI6559
S'improvments'
p6559
sI6560
S'official'
p6560
sI6561
S'int'
p6561
sI6562
S'inn'
p6562
sI6563
S'transportations'
p6563
sI6564
S'satified'
p6564
sI6565
S'employeed'
p6565
sI6566
S'choosen'
p6566
sI6567
S'crimes'
p6567
sI6568
S'inflate'
p6568
sI6569
S'harms'
p6569
sI6570
S'blamed'
p6570
sI6571
S'centres'
p6571
sI6572
S'abstract'
p6572
sI6573
S'airplane'
p6573
sI6574
S'slogan'
p6574
sI6575
S'bonds'
p6575
sI6576
S'card'
p6576
sI6577
S'selections'
p6577
sI6578
S'televisions'
p6578
sI6579
S'blame'
p6579
sI6580
S'conservative'
p6580
sI6581
S'high-volume'
p6581
sI6582
S'multinational'
p6582
sI6583
S'selective'
p6583
sI6584
S'arena'
p6584
sI6585
S'excessively'
p6585
sI6586
S'norms'
p6586
sI6587
S'deparment'
p6587
sI6588
S'urgent'
p6588
sI6589
S'accessibility'
p6589
sI6590
S'refrain'
p6590
sI6591
S'healthcare'
p6591
sI6592
S'repositioning'
p6592
sI6593
S'housing'
p6593
sI6594
S'expansions'
p6594
sI6595
S'exercises'
p6595
sI6596
S'horrible'
p6596
sI6597
S'career'
p6597
sI6598
S'blaming'
p6598
sI6599
S'guests'
p6599
sI6600
S'taught'
p6600
sI6601
S'aids'
p6601
sI6602
S'bits'
p6602
sI6603
S'wearing'
p6603
sI6604
S'comply'
p6604
sI6605
S'restricting'
p6605
sI6606
S'height'
p6606
sI6607
S'mexico'
p6607
sI6608
S'enviornment'
p6608
sI6609
S'habbits'
p6609
sI6610
S'benchmarks'
p6610
sI6611
S'interst'
p6611
sI6612
S'digital'
p6612
sI6613
S'diet'
p6613
sI6614
S'authorities'
p6614
sI6615
S'shadowing'
p6615
sI6616
S'institute'
p6616
sI6617
S'downtown'
p6617
sI6618
S'agent'
p6618
sI6619
S'outlet'
p6619
sI6620
S'canada'
p6620
sI6621
S'personalities'
p6621
sI6622
S'16'
p6622
sI6623
S'miles'
p6623
sI6624
S'coupons'
p6624
sI6625
S'grants'
p6625
sI6626
S'arts'
p6626
sI6627
S'empoyees'
p6627
sI6628
S'speech'
p6628
sI6629
S'credentials'
p6629
sI6630
S'seconds'
p6630
sI6631
S'distracted'
p6631
sI6632
S'amenities'
p6632
sI6633
S'faculty'
p6633
sI6634
S'sytem'
p6634
sI6635
S'paths'
p6635
sI6636
S'locating'
p6636
sI6637
S'representive'
p6637
sI6638
S'full-time'
p6638
sI6639
S'cents'
p6639
sI6640
S'patient'
p6640
sI6641
S'restrictive'
p6641
sI6642
S'planes'
p6642
sI6643
S'curb'
p6643
sI6644
S'officials'
p6644
sI6645
S'recreation'
p6645
sI6646
S'bothered'
p6646
sI6647
S'satisified'
p6647
sI6648
S'fluctuates'
p6648
sI6649
S'visited'
p6649
sI6650
S'tightening'
p6650
sI6651
S'freely'
p6651
sI6652
S'trips'
p6652
sI6653
S'worlds'
p6653
sI6654
S'guidelines'
p6654
sI6655
S'incidents'
p6655
sI6656
S'researcher'
p6656
sI6657
S'entertaining'
p6657
sI6658
S'refutes'
p6658
sI6659
S'ice'
p6659
sI6660
S'donated'
p6660
sI6661
S'wireless'
p6661
sI6662
S'papers'
p6662
sI6663
S'unfamiliar'
p6663
sI6664
S'emploees'
p6664
sI6665
S'sessions'
p6665
sI6666
S'125'
p6666
sI6667
S'unproductive'
p6667
sI6668
S'fairs'
p6668
sI6669
S'register'
p6669
sI6670
S'parking'
p6670
sI6671
S'successed'
p6671
sI6672
S'featuring'
p6672
sI6673
S'slippery'
p6673
sI6674
S'accouting'
p6674
sI6675
S'mood'
p6675
sI6676
S'fish'
p6676
sI6677
S'vested'
p6677
sI6678
S'booked'
p6678
sI6679
S'apartment'
p6679
sI6680
S'sun'
p6680
sI6681
S'adventure'
p6681
sI6682
S'aggresively'
p6682
sI6683
S'institutions'
p6683
sI6684
S'medicines'
p6684
sI6685
S'defense'
p6685
sI6686
S'korea'
p6686
sI6687
S'village'
p6687
sI6688
S'decling'
p6688
sI6689
S'flight'
p6689
sI6690
S'equipping'
p6690
sI6691
S'complimentary'
p6691
sI6692
S'entrance'
p6692
sI6693
S'inventions'
p6693
sI6694
S'comunity'
p6694
sI6695
S'struggled'
p6695
sI6696
S'ambition'
p6696
sI6697
S'institution'
p6697
sI6698
S'underpriced'
p6698
sI6699
S'teenagers'
p6699
sI6700
S'agency'
p6700
sI6701
S'candidates'
p6701
sI6702
S'module'
p6702
sI6703
S'incident'
p6703
sI6704
S'premiere'
p6704
sI6705
S'aquisition'
p6705
sI6706
S'happiness'
p6706
sI6707
S'pop'
p6707
sI6708
S'servies'
p6708
sI6709
S'expereince'
p6709
sI6710
S'fossil'
p6710
sI6711
S'marketers'
p6711
sI6712
S'glass'
p6712
sI6713
S'locked'
p6713
sI6714
S'complaining'
p6714
sI6715
S'baggage'
p6715
sI6716
S'educating'
p6716
sI6717
S'silver'
p6717
sI6718
S'traction'
p6718
sI6719
S'tree'
p6719
sI6720
S'agressive'
p6720
sI6721
S'memebers'
p6721
sI6722
S'planner'
p6722
sI6723
S'severity'
p6723
sI6724
S'academic'
p6724
sI6725
S'morning'
p6725
sI6726
S't-shirts'
p6726
sI6727
S'clothings'
p6727
sI6728
S'applications'
p6728
sI6729
S'st'
p6729
sI6730
S'disasters'
p6730
sI6731
S'depressed'
p6731
sI6732
S'trains'
p6732
sI6733
S'lowing'
p6733
sI6734
S'enery'
p6734
sI6735
S'excercise'
p6735
sI6736
S'meals'
p6736
sI6737
S'dirty'
p6737
sI6738
S'beverage'
p6738
sI6739
S'pollutants'
p6739
sI6740
S'compliance'
p6740
sI6741
S'couples'
p6741
sI6742
S'evolved'
p6742
sI6743
S'treatments'
p6743
sI6744
S'highway'
p6744
sI6745
S'crop'
p6745
sI6746
S'bodies'
p6746
sI6747
S'occupation'
p6747
sI6748
S'respondents'
p6748
sI6749
S'coincidence'
p6749
sI6750
S'regulating'
p6750
sI6751
S'hometown'
p6751
sI6752
S'convinience'
p6752
sI6753
S'actors'
p6753
sI6754
S'slogans'
p6754
sI6755
S'invented'
p6755
sI6756
S'illegal'
p6756
sI6757
S'lock'
p6757
sI6758
S'pair'
p6758
sI6759
S'blocks'
p6759
sI6760
S'interactions'
p6760
sI6761
S'mandatory'
p6761
sI6762
S'partnership'
p6762
sI6763
S'drug'
p6763
sI6764
S'commuter'
p6764
sI6765
S'nationally'
p6765
sI6766
S'audio'
p6766
sI6767
S'fluctuating'
p6767
sI6768
S'desk'
p6768
sI6769
S'fluctuated'
p6769
sI6770
S'governement'
p6770
sI6771
S'beach'
p6771
sI6772
S'green'
p6772
sI6773
S'trafic'
p6773
sI6774
S'john'
p6774
sI6775
S'germany'
p6775
sI6776
S'stricter'
p6776
sI6777
S'kitchen'
p6777
sI6778
S'trainer'
p6778
sI6779
S'profession'
p6779
sI6780
S'catalyst'
p6780
sI6781
S'complaint'
p6781
sI6782
S'teaches'
p6782
sI6783
S'co-workers'
p6783
sI6784
S'commuters'
p6784
sI6785
S'british'
p6785
sI6786
S'accessed'
p6786
sI6787
S'passenger'
p6787
sI6788
S'dangers'
p6788
sI6789
S'closest'
p6789
sI6790
S'complained'
p6790
sI6791
S'developers'
p6791
sI6792
S'non-profit'
p6792
sI6793
S'atract'
p6793
sI6794
S'ammenities'
p6794
sI6795
S'endeavors'
p6795
sI6796
S'surrounded'
p6796
sI6797
S'inflating'
p6797
sI6798
S'witnessed'
p6798
sI6799
S'inspired'
p6799
sI6800
S'one-day'
p6800
sI6801
S'empolyee'
p6801
sI6802
S'betterment'
p6802
sI6803
S'evening'
p6803
sI6804
S'lifestyles'
p6804
sI6805
S'partnerships'
p6805
sI6806
S'guaranteeing'
p6806
sI6807
S'showcased'
p6807
sI6808
S'u.s'
p6808
sI6809
S'flights'
p6809
sI6810
S'locals'
p6810
sI6811
S'innovating'
p6811
sI6812
S'experimental'
p6812
sI6813
S'wherever'
p6813
sI6814
S'distances'
p6814
sI6815
S'inconvenience'
p6815
sI6816
S'renewal'
p6816
sI6817
S'registered'
p6817
sI6818
S'neighbouring'
p6818
sI6819
S'facebook'
p6819
sI6820
S'averages'
p6820
sI6821
S'equiping'
p6821
sI6822
S'advisor'
p6822
sI6823
S'herself'
p6823
sI6824
S'inhouse'
p6824
sI6825
S'busniess'
p6825
sI6826
S'joins'
p6826
sI6827
S'compaign'
p6827
sI6828
S'cent'
p6828
sI6829
S'destruction'
p6829
sI6830
S'density'
p6830
sI6831
S'sized'
p6831
sI6832
S'phenomena'
p6832
sI6833
S'techology'
p6833
sI6834
S'collaborate'
p6834
sI6835
S'movies'
p6835
sI6836
S'stagnated'
p6836
sI6837
S'foods'
p6837
sI6838
S'professions'
p6838
sI6839
S'cleaning'
p6839
sI6840
S'contruction'
p6840
sI6841
S'tripled'
p6841
sI6842
S'exemplary'
p6842
sI6843
S'publishing'
p6843
sI6844
S'exported'
p6844
sI6845
S'father'
p6845
sI6846
S'travels'
p6846
sI6847
S'congestion'
p6847
sI6848
S'facilties'
p6848
sI6849
S'teenage'
p6849
sI6850
S'verge'
p6850
sI6851
S'gradual'
p6851
sI6852
S'mail'
p6852
sI6853
S'lunch'
p6853
sI6854
S'oppurtunities'
p6854
sI6855
S'contries'
p6855
sI6856
S'11'
p6856
sI6857
S'junior'
p6857
sI6858
S'testimonials'
p6858
sI6859
S'unethical'
p6859
sI6860
S'medias'
p6860
sI6861
S'trades'
p6861
sI6862
S'venues'
p6862
sI6863
S'experiance'
p6863
sI6864
S'flavor'
p6864
sI6865
S'mom'
p6865
sI6866
S'expressing'
p6866
sI6867
S'emissions'
p6867
sI6868
S'videos'
p6868
sI6869
S'founder'
p6869
sI6870
S'neighborhood'
p6870
sI6871
S'buses'
p6871
sI6872
S'destination'
p6872
sI6873
S'mediums'
p6873
sI6874
S'blood'
p6874
sI6875
S'responsability'
p6875
sI6876
S'males'
p6876
sI6877
S'polling'
p6877
sI6878
S'merger'
p6878
sI6879
S'iron'
p6879
sI6880
S'aircraft'
p6880
sI6881
S'distracting'
p6881
sI6882
S'excited'
p6882
sI6883
S'respectful'
p6883
sI6884
S'demonstrations'
p6884
sI6885
S'footage'
p6885
sI6886
S'reserves'
p6886
sI6887
S'locates'
p6887
sI6888
S'activies'
p6888
sI6889
S'coutry'
p6889
sI6890
S'pharmaceutical'
p6890
sI6891
S'qualification'
p6891
sI6892
S'sevice'
p6892
sI6893
S'emloyees'
p6893
sI6894
S'enviromental'
p6894
sI6895
S'flourishing'
p6895
sI6896
S'airplanes'
p6896
sI6897
S'scholars'
p6897
sI6898
S'noisy'
p6898
sI6899
S'bus'
p6899
sI6900
S'vacations'
p6900
sI6901
S'adjacent'
p6901
sI6902
S'london'
p6902
sI6903
S'weekends'
p6903
sI6904
S'motel'
p6904
sI6905
S'independence'
p6905
sI6906
S'advising'
p6906
sI6907
S'opted'
p6907
sI6908
S'excel'
p6908
sI6909
S'temptation'
p6909
sI6910
S'games'
p6910
sI6911
S'mother'
p6911
sI6912
S'expantion'
p6912
sI6913
S'gift'
p6913
sI6914
S'responsiblity'
p6914
sI6915
S'heat'
p6915
sI6916
S'depot'
p6916
sI6917
S'unbalanced'
p6917
sI6918
S'football'
p6918
sI6919
S'collegues'
p6919
sI6920
S'baseball'
p6920
sI6921
S'exams'
p6921
sI6922
S'endorsement'
p6922
sI6923
S'civil'
p6923
sI6924
S'representitive'
p6924
sI6925
S'attended'
p6925
sI6926
S'crime'
p6926
sI6927
S'prompted'
p6927
sI6928
S'one-stop'
p6928
sI6929
S'minister'
p6929
sI6930
S'telephone'
p6930
sI6931
S'rose'
p6931
sI6932
S'schedules'
p6932
sI6933
S'instituting'
p6933
sI6934
S'tariffs'
p6934
sI6935
S'valley'
p6935
sI6936
S'fuel-efficient'
p6936
sI6937
S'websites'
p6937
sI6938
S'interpersonal'
p6938
sI6939
S'instructions'
p6939
sI6940
S'residing'
p6940
sI6941
S'interviews'
p6941
sI6942
S'guest'
p6942
sI6943
S'temperature'
p6943
sI6944
S'park'
p6944
sI6945
S'infrastructures'
p6945
sI6946
S'prescription'
p6946
sI6947
S'regulated'
p6947
sI6948
S'holidays'
p6948
sI6949
S'governmental'
p6949
sI6950
S'complains'
p6950
sI6951
S'crowds'
p6951
sI6952
S'entrepreneurs'
p6952
sI6953
S'peace'
p6953
sI6954
S'one-on-one'
p6954
sI6955
S'friendliness'
p6955
sI6956
S'patron'
p6956
sI6957
S'bestsellers'
p6957
sI6958
S'restaurants'
p6958
sI6959
S'skillsets'
p6959
sI6960
S'centre'
p6960
sI6961
S'collaboration'
p6961
sI6962
S'neighboring'
p6962
sI6963
S'surroundings'
p6963
sI6964
S'instill'
p6964
sI6965
S'agencies'
p6965
sI6966
S'inch'
p6966
sI6967
S'bosses'
p6967
sI6968
S'dependence'
p6968
sI6969
S'eligible'
p6969
sI6970
S'pound'
p6970
sI6971
S'browse'
p6971
sI6972
S'tripling'
p6972
sI6973
S'silicon'
p6973
sI6974
S'renovated'
p6974
sI6975
S'openning'
p6975
sI6976
S'partake'
p6976
sI6977
S'professionally'
p6977
sI6978
S'incentivized'
p6978
sI6979
S'authorized'
p6979
sI6980
S'tournament'
p6980
sI6981
S'cleaver'
p6981
sI6982
S'rents'
p6982
sI6983
S'cleanliness'
p6983
sI6984
S'enroll'
p6984
sI6985
S'conversations'
p6985
sI6986
S'viewers'
p6986
sI6987
S'sh'
p6987
sI6988
S'highways'
p6988
sI6989
S'unparalleled'
p6989
sI6990
S'russia'
p6990
sI6991
S'illness'
p6991
sI6992
S'printed'
p6992
sI6993
S'winters'
p6993
sI6994
S'sponsorship'
p6994
sI6995
S'uk'
p6995
sI6996
S'supermarket'
p6996
sI6997
S'traing'
p6997
sI6998
S'prominently'
p6998
sI6999
S'energetic'
p6999
sI7000
S'accessing'
p7000
sI7001
S'internship'
p7001
sI7002
S'meal'
p7002
sI7003
S'neighbor'
p7003
sI7004
S'nearest'
p7004
sI7005
S'watched'
p7005
sI7006
S'cream'
p7006
sI7007
S'enjoyable'
p7007
sI7008
S'attendance'
p7008
sI7009
S'travelling'
p7009
sI7010
S'shopped'
p7010
sI7011
S'ecnomic'
p7011
sI7012
S'interviewed'
p7012
sI7013
S'fights'
p7013
sI7014
S'experince'
p7014
sI7015
S'accommodations'
p7015
sI7016
S'session'
p7016
sI7017
S'sex'
p7017
sI7018
S'poverty'
p7018
sI7019
S'agents'
p7019
sI7020
S'suburbs'
p7020
sI7021
S'cuisine'
p7021
sI7022
S'listening'
p7022
sI7023
S'admission'
p7023
sI7024
S'dis'
p7024
sI7025
S'consensus'
p7025
sI7026
S'on-the-job'
p7026
sI7027
S'relaxed'
p7027
sI7028
S'apiece'
p7028
sI7029
S'chat'
p7029
sI7030
S'code'
p7030
sI7031
S'garden'
p7031
sI7032
S'obesity'
p7032
sI7033
S'graduating'
p7033
sI7034
S'polluting'
p7034
sI7035
S'atheletes'
p7035
sI7036
S'disobey'
p7036
sI7037
S'agressively'
p7037
sI7038
S'charity'
p7038
sI7039
S'athlete'
p7039
sI7040
S'drill'
p7040
sI7041
S'billboards'
p7041
sI7042
S'educational'
p7042
sI7043
S'populace'
p7043
sI7044
S'enforcement'
p7044
sI7045
S'anaylst'
p7045
sI7046
S'lucky'
p7046
sI7047
S'interacting'
p7047
sI7048
S'goverments'
p7048
sI7049
S'discoveries'
p7049
sI7050
S'conserve'
p7050
sI7051
S'drink'
p7051
sI7052
S'vistors'
p7052
sI7053
S'inexperienced'
p7053
sI7054
S'seeds'
p7054
sI7055
S'letters'
p7055
sI7056
S'spots'
p7056
sI7057
S'festival'
p7057
sI7058
S'rural'
p7058
sI7059
S'adverting'
p7059
sI7060
S'state-of-the'
p7060
sI7061
S'permits'
p7061
sI7062
S'consent'
p7062
sI7063
S'flyers'
p7063
sI7064
S'hosted'
p7064
sI7065
S'medicine'
p7065
sI7066
S'renew'
p7066
sI7067
S'hedging'
p7067
sI7068
S'navigate'
p7068
sI7069
S'exercised'
p7069
sI7070
S'rail'
p7070
sI7071
S'musical'
p7071
sI7072
S'stringent'
p7072
sI7073
S'campagin'
p7073
sI7074
S'occurring'
p7074
sI7075
S'graduates'
p7075
sI7076
S'vitality'
p7076
sI7077
S'artificially'
p7077
sI7078
S'scores'
p7078
sI7079
S'subsidies'
p7079
sI7080
S'futures'
p7080
sI7081
S'veteran'
p7081
sI7082
S'elected'
p7082
sI7083
S'taxi'
p7083
sI7084
S'journey'
p7084
sI7085
S'mover'
p7085
sI7086
S'mile'
p7086
sI7087
S'fiber'
p7087
sI7088
S'recruits'
p7088
sI7089
S'partnering'
p7089
sI7090
S'internation'
p7090
sI7091
S'species'
p7091
sI7092
S'menus'
p7092
sI7093
S'labs'
p7093
sI7094
S'trees'
p7094
sI7095
S'mentoring'
p7095
sI7096
S'mega'
p7096
sI7097
S'adverstising'
p7097
sI7098
S'youths'
p7098
sI7099
S'constructions'
p7099
sI7100
S'sponsored'
p7100
sI7101
S'films'
p7101
sI7102
S'mineral'
p7102
sI7103
S'politicians'
p7103
sI7104
S'best-sellers'
p7104
sI7105
S'click'
p7105
sI7106
S'years.the'
p7106
sI7107
S'swimming'
p7107
sI7108
S'chemicals'
p7108
sI7109
S'relatives'
p7109
sI7110
S'learnt'
p7110
sI7111
S'kone'
p7111
sI7112
S'outsiders'
p7112
sI7113
S'discrimination'
p7113
sI7114
S'resident'
p7114
sI7115
S'campus'
p7115
sI7116
S'deposits'
p7116
sI7117
S'proffesional'
p7117
sI7118
S'twitter'
p7118
sI7119
S'library'
p7119
sI7120
S'warmer'
p7120
sI7121
S'sponsoring'
p7121
sI7122
S'inspiration'
p7122
sI7123
S'recruited'
p7123
sI7124
S'receipt'
p7124
sI7125
S'courts'
p7125
sI7126
S'hosting'
p7126
sI7127
S'facilites'
p7127
sI7128
S'ingredients'
p7128
sI7129
S'coporations'
p7129
sI7130
S'spokesman'
p7130
sI7131
S'army'
p7131
sI7132
S'warm'
p7132
sI7133
S'adult'
p7133
sI7134
S'athletes'
p7134
sI7135
S'meat'
p7135
sI7136
S'univeristy'
p7136
sI7137
S'girls'
p7137
sI7138
S'gym'
p7138
sI7139
S'ambassador'
p7139
sI7140
S'sugar'
p7140
sI7141
S'architecture'
p7141
sI7142
S'aggresive'
p7142
sI7143
S'sporting'
p7143
sI7144
S'candidate'
p7144
sI7145
S'handed'
p7145
sI7146
S'high-profile'
p7146
sI7147
S'fly'
p7147
sI7148
S'membership'
p7148
sI7149
S'african'
p7149
sI7150
S'accomodation'
p7150
sI7151
S'artist'
p7151
sI7152
S'conventions'
p7152
sI7153
S'emerged'
p7153
sI7154
S'responsibilty'
p7154
sI7155
S'accountability'
p7155
sI7156
S'participated'
p7156
sI7157
S'14'
p7157
sI7158
S'boundaries'
p7158
sI7159
S'august'
p7159
sI7160
S'dates'
p7160
sI7161
S'conferences'
p7161
sI7162
S'doctor'
p7162
sI7163
S'gates'
p7163
sI7164
S'routines'
p7164
sI7165
S'organizing'
p7165
sI7166
S'fitness'
p7166
sI7167
S'deadlines'
p7167
sI7168
S'drills'
p7168
sI7169
S'bussinesses'
p7169
sI7170
S'colleges'
p7170
sI7171
S'admits'
p7171
sI7172
S'teamwork'
p7172
sI7173
S'lemons'
p7173
sI7174
S'connectivity'
p7174
sI7175
S'coal'
p7175
sI7176
S'drinking'
p7176
sI7177
S'22'
p7177
sI7178
S'energies'
p7178
sI7179
S'cups'
p7179
sI7180
S'revive'
p7180
sI7181
S'inconvenient'
p7181
sI7182
S'interactive'
p7182
sI7183
S'buget'
p7183
sI7184
S'cpm'
p7184
sI7185
S'distributes'
p7185
sI7186
S'theft'
p7186
sI7187
S'donate'
p7187
sI7188
S'decoration'
p7188
sI7189
S'regulate'
p7189
sI7190
S'organically'
p7190
sI7191
S'snow'
p7191
sI7192
S'cup'
p7192
sI7193
S'representativeness'
p7193
sI7194
S'contacts'
p7194
sI7195
S'lesson'
p7195
sI7196
S'boys'
p7196
sI7197
S'two-part'
p7197
sI7198
S'cure'
p7198
sI7199
S'groceries'
p7199
sI7200
S'overpriced'
p7200
sI7201
S'confounding'
p7201
sI7202
S'uncomfortable'
p7202
sI7203
S'scandal'
p7203
sI7204
S'native'
p7204
sI7205
S'programmes'
p7205
sI7206
S'welcoming'
p7206
sI7207
S'muscle'
p7207
sI7208
S'enviornmental'
p7208
sI7209
S'incentivize'
p7209
sI7210
S'virtual'
p7210
sI7211
S'resist'
p7211
sI7212
S'hate'
p7212
sI7213
S'venue'
p7213
sI7214
S'teachers'
p7214
sI7215
S'ventures'
p7215
sI7216
S'iridium'
p7216
sI7217
S'gate'
p7217
sI7218
S'signing'
p7218
sI7219
S'cloths'
p7219
sI7220
S'twenty-five'
p7220
sI7221
S'founding'
p7221
sI7222
S'colleague'
p7222
sI7223
S'spokesperson'
p7223
sI7224
S'interviewing'
p7224
sI7225
S'lenses'
p7225
sI7226
S'conference'
p7226
sI7227
S'workout'
p7227
sI7228
S'election'
p7228
sI7229
S'christmas'
p7229
sI7230
S'permitting'
p7230
sI7231
S'emission'
p7231
sI7232
S'aircrafts'
p7232
sI7233
S'birthday'
p7233
sI7234
S'farmer'
p7234
sI7235
S'advent'
p7235
sI7236
S'extrapolate'
p7236
sI7237
S'accommodation'
p7237
sI7238
S'district'
p7238
sI7239
S'cards'
p7239
sI7240
S'surf'
p7240
sI7241
S'closures'
p7241
sI7242
S'farmers'
p7242
sI7243
S'arrival'
p7243
sI7244
S'passangers'
p7244
sI7245
S'thrilling'
p7245
sI7246
S'64'
p7246
sI7247
S'lifes'
p7247
sI7248
S'locking'
p7248
sI7249
S'trip'
p7249
sI7250
S'violent'
p7250
sI7251
S'classmates'
p7251
sI7252
S'inviting'
p7252
sI7253
S'cultures'
p7253
sI7254
S'oneself'
p7254
sI7255
S'generalize'
p7255
sI7256
S'song'
p7256
sI7257
S'regulary'
p7257
sI7258
S'unprofessional'
p7258
sI7259
S'tennis'
p7259
sI7260
S'chores'
p7260
sI7261
S'healty'
p7261
sI7262
S'advertsing'
p7262
sI7263
S'instruction'
p7263
sI7264
S'imports'
p7264
sI7265
S'sandwiches'
p7265
sI7266
S'coincided'
p7266
sI7267
S'corruption'
p7267
sI7268
S'organisations'
p7268
sI7269
S'delicious'
p7269
sI7270
S'polled'
p7270
sI7271
S'newsletter'
p7271
sI7272
S'lemon'
p7272
sI7273
S'fast-paced'
p7273
sI7274
S'sensation'
p7274
sI7275
S'polution'
p7275
sI7276
S'distractions'
p7276
sI7277
S'tenure'
p7277
sI7278
S'holiday'
p7278
sI7279
S'destinations'
p7279
sI7280
S'well-equipped'
p7280
sI7281
S'state-of-art'
p7281
sI7282
S'beverages'
p7282
sI7283
S'packaging'
p7283
sI7284
S'subscribe'
p7284
sI7285
S'accomodations'
p7285
sI7286
S'warming'
p7286
sI7287
S'column'
p7287
sI7288
S'travelers'
p7288
sI7289
S'june'
p7289
sI7290
S'*'
p7290
s.